Component: ARM Compiler 5.06 update 6 (build 750) Tool: armlink [4d35ed]

==============================================================================

Section Cross References

    startup_stm32f446xx.o(RESET) refers to startup_stm32f446xx.o(STACK) for __initial_sp
    startup_stm32f446xx.o(RESET) refers to startup_stm32f446xx.o(.text) for Reset_Handler
    startup_stm32f446xx.o(RESET) refers to stm32fxxx_it.o(.text) for NMI_Handler
    startup_stm32f446xx.o(RESET) refers to tm_stm32_rtc.o(.text) for RTC_WKUP_IRQHandler
    startup_stm32f446xx.o(RESET) refers to tc.o(.text) for EXTI1_IRQHandler
    startup_stm32f446xx.o(RESET) refers to tm_stm32_usb.o(.text) for OTG_FS_IRQHandler
    startup_stm32f446xx.o(.text) refers to system_stm32f4xx.o(.text) for SystemInit
    startup_stm32f446xx.o(.text) refers to entry.o(.ARM.Collect$$$$00000000) for __main
    stm32f4xx_hal.o(.text) refers to stm32f4xx_hal_rcc.o(.text) for HAL_RCC_GetHCLKFreq
    stm32f4xx_hal.o(.text) refers to stm32f4xx_hal_cortex.o(.text) for HAL_SYSTICK_Config
    stm32f4xx_hal.o(.text) refers to stm32f4xx_hal_msp.o(.text) for HAL_MspInit
    stm32f4xx_hal.o(.text) refers to tm_stm32_delay.o(.text) for HAL_GetTick
    stm32f4xx_hal.o(.text) refers to stm32f4xx_hal.o(.data) for .data
    stm32f4xx_hal_can.o(.text) refers to stm32f4xx_hal_msp.o(.text) for HAL_CAN_MspInit
    stm32f4xx_hal_can.o(.text) refers to tm_stm32_delay.o(.text) for HAL_GetTick
    stm32f4xx_hal_dma.o(.text) refers to tm_stm32_delay.o(.text) for HAL_GetTick
    stm32f4xx_hal_dma.o(.text) refers to stm32f4xx_hal_dma.o(.constdata) for .constdata
    stm32f4xx_hal_hcd.o(.text) refers to usbh_conf.o(.text) for HAL_HCD_MspInit
    stm32f4xx_hal_hcd.o(.text) refers to stm32f4xx_ll_usb.o(.text) for USB_DisableGlobalInt
    stm32f4xx_hal_i2c.o(.text) refers to stm32f4xx_hal_rcc.o(.text) for HAL_RCC_GetPCLK1Freq
    stm32f4xx_hal_i2c.o(.text) refers to tm_stm32_delay.o(.text) for HAL_GetTick
    stm32f4xx_hal_i2c.o(.text) refers to stm32f4xx_hal_dma.o(.text) for HAL_DMA_Start_IT
    stm32f4xx_hal_pwr_ex.o(.text) refers to tm_stm32_delay.o(.text) for HAL_GetTick
    stm32f4xx_hal_rcc.o(.text) refers to tm_stm32_delay.o(.text) for HAL_GetTick
    stm32f4xx_hal_rcc.o(.text) refers to stm32f4xx_hal.o(.text) for HAL_InitTick
    stm32f4xx_hal_rcc.o(.text) refers to stm32f4xx_hal_gpio.o(.text) for HAL_GPIO_Init
    stm32f4xx_hal_rcc.o(.text) refers to stm32f4xx_hal_rcc_ex.o(.text) for HAL_RCC_GetSysClockFreq
    stm32f4xx_hal_rcc.o(.text) refers to stm32f4xx_hal_rcc.o(.constdata) for .constdata
    stm32f4xx_hal_rcc.o(.text) refers to system_stm32f4xx.o(.data) for SystemCoreClock
    stm32f4xx_hal_rcc_ex.o(.text) refers to tm_stm32_delay.o(.text) for HAL_GetTick
    stm32f4xx_hal_rtc.o(.text) refers to tm_stm32_delay.o(.text) for HAL_GetTick
    stm32f4xx_hal_rtc.o(.text) refers to stm32f4xx_hal_rtc_ex.o(.text) for HAL_RTCEx_AlarmBEventCallback
    stm32f4xx_hal_rtc_ex.o(.text) refers to stm32f4xx_hal_rtc.o(.text) for RTC_Bcd2ToByte
    stm32f4xx_hal_rtc_ex.o(.text) refers to tm_stm32_delay.o(.text) for HAL_GetTick
    stm32f4xx_hal_tim.o(.text) refers to stm32f4xx_hal_msp.o(.text) for HAL_TIM_Base_MspInit
    stm32f4xx_hal_tim.o(.text) refers to stm32f4xx_hal_dma.o(.text) for HAL_DMA_Start_IT
    stm32f4xx_hal_tim.o(.text) refers to stm32f4xx_hal_tim_ex.o(.text) for HAL_TIMEx_BreakCallback
    stm32f4xx_hal_tim_ex.o(.text) refers to stm32f4xx_hal_tim.o(.text) for TIM_Base_SetConfig
    stm32f4xx_hal_tim_ex.o(.text) refers to stm32f4xx_hal_dma.o(.text) for HAL_DMA_Start_IT
    stm32f4xx_hal_uart.o(.text) refers to stm32f4xx_hal_rcc.o(.text) for HAL_RCC_GetPCLK2Freq
    stm32f4xx_hal_uart.o(.text) refers to stm32f4xx_hal_msp.o(.text) for HAL_UART_MspInit
    stm32f4xx_hal_uart.o(.text) refers to tm_stm32_delay.o(.text) for HAL_GetTick
    stm32f4xx_hal_uart.o(.text) refers to stm32f4xx_hal_dma.o(.text) for HAL_DMA_Start_IT
    stm32f4xx_hal_usart.o(.text) refers to stm32f4xx_hal_rcc.o(.text) for HAL_RCC_GetPCLK1Freq
    stm32f4xx_hal_usart.o(.text) refers to tm_stm32_delay.o(.text) for HAL_GetTick
    stm32f4xx_hal_usart.o(.text) refers to stm32f4xx_hal_dma.o(.text) for HAL_DMA_Start_IT
    stm32f4xx_ll_usb.o(.text) refers to tm_stm32_delay.o(.text) for HAL_Delay
    stm32f4xx_ll_usb.o(.text) refers to stm32f4xx_ll_usb.o(.data) for .data
    stm32f4xx_hal_spi.o(.text) refers to tm_stm32_delay.o(.text) for HAL_GetTick
    stm32f4xx_hal_spi.o(.text) refers to stm32f4xx_hal_dma.o(.text) for HAL_DMA_Start_IT
    stm32f4xx_hal_sd.o(.text) refers to stm32f4xx_ll_sdmmc.o(.text) for SDIO_GetCommandResponse
    stm32f4xx_hal_sd.o(.text) refers to tm_stm32_delay.o(.text) for HAL_Delay
    stm32f4xx_hal_sd.o(.text) refers to stm32f4xx_hal_dma.o(.text) for HAL_DMA_Abort
    stm32f4xx_hal_sdram.o(.text) refers to stm32f4xx_ll_fmc.o(.text) for FMC_SDRAM_Init
    stm32f4xx_hal_sdram.o(.text) refers to stm32f4xx_hal_dma.o(.text) for HAL_DMA_Start_IT
    stm32f4xx_hal_pcd.o(.text) refers to stm32f4xx_ll_usb.o(.text) for USB_DisableGlobalInt
    stm32f4xx_hal_pcd.o(.text) refers to stm32f4xx_hal_pcd_ex.o(.text) for HAL_PCDEx_ActivateLPM
    stm32f4xx_ll_fmc.o(.text) refers to tm_stm32_delay.o(.text) for HAL_GetTick
    tm_stm32_delay.o(.text) refers to malloc.o(i.malloc) for malloc
    tm_stm32_delay.o(.text) refers to malloc.o(i.free) for free
    tm_stm32_delay.o(.text) refers to tm_stm32_delay.o(.bss) for .bss
    tm_stm32_delay.o(.text) refers to tm_stm32_delay.o(.data) for .data
    tm_stm32_disco.o(.text) refers to tm_stm32_gpio.o(.text) for TM_GPIO_Init
    tm_stm32_disco.o(.text) refers to tm_stm32_disco.o(.data) for .data
    tm_stm32_fatfs.o(.text) refers to ff.o(.text) for f_getfree
    tm_stm32_fatfs.o(.text) refers to dfltui.o(.text) for __aeabi_ui2d
    tm_stm32_fatfs.o(.text) refers to dmul.o(.text) for __aeabi_dmul
    tm_stm32_fatfs.o(.text) refers to dfixui.o(.text) for __aeabi_d2uiz
    tm_stm32_fatfs.o(.text) refers to malloc.o(i.malloc) for malloc
    tm_stm32_fatfs.o(.text) refers to strlen.o(.text) for strlen
    tm_stm32_fatfs.o(.text) refers to strcpy.o(.text) for strcpy
    tm_stm32_fonts.o(.text) refers to strlen.o(.text) for strlen
    tm_stm32_fonts.o(.data) refers to tm_stm32_fonts.o(.constdata) for TM_Font7x10
    tm_stm32_fonts.o(.data) refers to tm_stm32_fonts.o(.constdata) for TM_Font11x18
    tm_stm32_fonts.o(.data) refers to tm_stm32_fonts.o(.constdata) for TM_Font16x26
    tm_stm32_gpio.o(.text) refers to tm_stm32_gpio.o(.bss) for .bss
    tm_stm32_i2c.o(.text) refers to tm_stm32_gpio.o(.text) for TM_GPIO_InitAlternate
    tm_stm32_i2c.o(.text) refers to stm32f4xx_hal_i2c.o(.text) for HAL_I2C_Init
    tm_stm32_i2c.o(.text) refers to stm32f4xx_hal_i2c_ex.o(.text) for HAL_I2CEx_ConfigAnalogFilter
    tm_stm32_i2c.o(.text) refers to tm_stm32_i2c.o(.data) for .data
    tm_stm32_mpu6050.o(.text) refers to tm_stm32_i2c.o(.text) for TM_I2C_Read
    tm_stm32_rcc.o(.text) refers to stm32f4xx_hal_rcc_ex.o(.text) for HAL_RCC_OscConfig
    tm_stm32_rcc.o(.text) refers to stm32f4xx_hal_pwr_ex.o(.text) for HAL_PWREx_EnableOverDrive
    tm_stm32_rcc.o(.text) refers to stm32f4xx_hal_rcc.o(.text) for HAL_RCC_ClockConfig
    tm_stm32_rtc.o(.text) refers to stm32f4xx_hal_rtc.o(.text) for HAL_RTC_GetTime
    tm_stm32_rtc.o(.text) refers to stm32f4xx_hal_pwr.o(.text) for HAL_PWR_EnableBkUpAccess
    tm_stm32_rtc.o(.text) refers to stm32f4xx_hal_rtc_ex.o(.text) for HAL_RTCEx_BKUPRead
    tm_stm32_rtc.o(.text) refers to stm32f4xx_hal_rcc_ex.o(.text) for HAL_RCC_OscConfig
    tm_stm32_rtc.o(.text) refers to tm_stm32_rtc.o(.data) for .data
    tm_stm32_rtc.o(.text) refers to tm_stm32_rtc.o(.bss) for .bss
    tm_stm32_rtc.o(.text) refers to stm32f4xx_hal_cortex.o(.text) for HAL_NVIC_SetPriority
    tm_stm32_spi.o(.text) refers to tm_stm32_gpio.o(.text) for TM_GPIO_InitAlternate
    tm_stm32_spi.o(.text) refers to stm32f4xx_hal_spi.o(.text) for HAL_SPI_Init
    tm_stm32_spi.o(.text) refers to stm32f4xx_hal_rcc.o(.text) for HAL_RCC_GetPCLK1Freq
    tm_stm32_usb.o(.text) refers to tm_stm32_gpio.o(.text) for TM_GPIO_InitAlternate
    tm_stm32_usb.o(.text) refers to stm32f4xx_hal_cortex.o(.text) for HAL_NVIC_SetPriority
    tm_stm32_usb.o(.text) refers to stm32f4xx_hal_hcd.o(.text) for HAL_HCD_IRQHandler
    tm_stm32_usb.o(.text) refers to usbh_conf.o(.bss) for hhcd_FS
    tm_stm32_buffer.o(.text) refers to malloc.o(i.malloc) for malloc
    tm_stm32_buffer.o(.text) refers to malloc.o(i.free) for free
    tm_stm32_buffer.o(.text) refers to memcpya.o(.text) for __aeabi_memcpy
    tm_stm32_buffer.o(.text) refers to strlen.o(.text) for strlen
    tm_stm32f4_bkpsram.o(.text) refers to stm32f4xx_hal_pwr.o(.text) for HAL_PWR_EnableBkUpAccess
    tm_stm32_usb_host.o(.text) refers to usbh_core.o(.text) for USBH_Init
    tm_stm32_usb_host.o(.text) refers to tm_stm32_usb_host.o(.data) for .data
    tm_stm32_usb_host.o(.text) refers to tm_stm32_usb_host.o(.bss) for .bss
    tm_stm32_usb_host.o(.data) refers to tm_stm32_usb_host.o(.bss) for hUSBHost_FS
    tm_stm32_usb_host_msc.o(.text) refers to usbh_core.o(.text) for USBH_RegisterClass
    tm_stm32_usb_host_msc.o(.text) refers to tm_stm32_usb_host.o(.text) for TM_USBH_GetUSBPointer
    tm_stm32_usb_host_msc.o(.text) refers to usbh_msc.o(.text) for USBH_MSC_IsReady
    tm_stm32_usb_host_msc.o(.text) refers to usbh_msc.o(.data) for USBH_msc
    tm_stm32_usb_host_msc.o(.text) refers to tm_stm32_usb_host.o(.bss) for hUSBHost_FS
    main.o(.text) refers to tm_stm32_rcc.o(.text) for TM_RCC_InitSystem
    main.o(.text) refers to stm32f4xx_hal.o(.text) for HAL_Init
    main.o(.text) refers to config.o(.text) for MX_GPIO_Init
    main.o(.text) refers to stm32f4xx_hal_can.o(.text) for HAL_CAN_Receive_IT
    main.o(.text) refers to stm32f4xx_hal_tim.o(.text) for HAL_TIM_Base_Start_IT
    main.o(.text) refers to packet.o(.text) for packet_init
    main.o(.text) refers to tm_stm32_usb_host.o(.text) for TM_USBH_Process
    main.o(.text) refers to ale_usart_f4.o(.text) for ALE_USART_Process_Byte
    main.o(.text) refers to funciones.o(.text) for USBReadBlock
    main.o(.text) refers to main.o(.bss) for .bss
    main.o(.text) refers to main.o(.data) for .data
    main.o(.text) refers to tc.o(.data) for TC_flag
    stm32fxxx_it.o(.text) refers to tm_stm32_delay.o(.text) for HAL_IncTick
    stm32fxxx_it.o(.text) refers to packet.o(.text) for packet_timerfunc
    stm32fxxx_it.o(.text) refers to stm32f4xx_hal_tim.o(.text) for HAL_TIM_IRQHandler
    stm32fxxx_it.o(.text) refers to stm32f4xx_hal_can.o(.text) for HAL_CAN_IRQHandler
    stm32fxxx_it.o(.text) refers to funciones.o(.text) for ReadCANData
    stm32fxxx_it.o(.text) refers to ale_usart_f4.o(.text) for ALE_USART_IRQHandler
    stm32fxxx_it.o(.text) refers to stm32f4xx_hal_cortex.o(.text) for HAL_NVIC_ClearPendingIRQ
    stm32fxxx_it.o(.text) refers to stm32f4xx_hal_gpio.o(.text) for HAL_GPIO_EXTI_IRQHandler
    stm32fxxx_it.o(.text) refers to main.o(.data) for time
    stm32fxxx_it.o(.text) refers to main.o(.data) for USBRead
    stm32fxxx_it.o(.text) refers to main.o(.bss) for htim3
    stm32fxxx_it.o(.text) refers to main.o(.bss) for ahus2
    stm32fxxx_it.o(.text) refers to stm32fxxx_it.o(.data) for .data
    stm32fxxx_it.o(.text) refers to main.o(.data) for beacon
    system_stm32f4xx.o(.text) refers to system_stm32f4xx.o(.data) for .data
    system_stm32f4xx.o(.text) refers to system_stm32f4xx.o(.constdata) for .constdata
    stm32f4xx_hal_msp.o(.text) refers to stm32f4xx_hal_cortex.o(.text) for HAL_NVIC_SetPriorityGrouping
    stm32f4xx_hal_msp.o(.text) refers to stm32f4xx_hal_gpio.o(.text) for HAL_GPIO_Init
    config.o(.text) refers to stm32f4xx_hal_rcc_ex.o(.text) for HAL_RCC_OscConfig
    config.o(.text) refers to stm32f4xx_hal_rcc.o(.text) for HAL_RCC_ClockConfig
    config.o(.text) refers to stm32f4xx_hal_cortex.o(.text) for HAL_SYSTICK_Config
    config.o(.text) refers to stm32f4xx_hal_gpio.o(.text) for HAL_GPIO_Init
    config.o(.text) refers to stm32f4xx_hal_tim.o(.text) for HAL_TIM_Base_Init
    config.o(.text) refers to stm32f4xx_hal_tim_ex.o(.text) for HAL_TIMEx_MasterConfigSynchronization
    config.o(.text) refers to stm32f4xx_hal_can.o(.text) for HAL_CAN_Init
    config.o(.text) refers to ale_usart_f4.o(.text) for ALE_USART_Init
    config.o(.text) refers to f2d.o(.text) for __aeabi_f2d
    config.o(.text) refers to printfa.o(i.__0sprintf) for __2sprintf
    config.o(.text) refers to main.o(.bss) for htim3
    config.o(.text) refers to main.o(.bss) for hcan2Filter
    config.o(.text) refers to funciones.o(.text) for processTelemetryByte
    config.o(.text) refers to main.o(.bss) for huart3
    config.o(.text) refers to config.o(.data) for .data
    config.o(.text) refers to main.o(.data) for kp
    config.o(.text) refers to main.o(.data) for ki
    config.o(.text) refers to main.o(.data) for RPMTARGET
    config.o(.text) refers to main.o(.data) for LCSMAXSPEED
    config.o(.text) refers to main.o(.data) for kd
    config.o(.text) refers to main.o(.data) for shift_up
    config.o(.text) refers to tm_stm32_usb.o(.text) for TM_USB_Init
    config.o(.text) refers to tm_stm32_usb_host.o(.text) for TM_USBH_Init
    config.o(.text) refers to tm_stm32_usb_host_msc.o(.text) for TM_USBH_MSC_Init
    config.o(.text) refers to tm_stm32_rtc.o(.text) for TM_RTC_Init
    config.o(.text) refers to main.o(.data) for shift_cut
    config.o(.text) refers to main.o(.bss) for RTCD
    funciones.o(.text) refers to stm32f4xx_hal_can.o(.text) for HAL_CAN_Transmit_IT
    funciones.o(.text) refers to tm_stm32_usb_host.o(.text) for TM_USBH_IsConnected
    funciones.o(.text) refers to tm_stm32_usb_host_msc.o(.text) for TM_USBH_MSC_IsConnected
    funciones.o(.text) refers to ff.o(.text) for f_mount
    funciones.o(.text) refers to printfa.o(i.__0sprintf) for __2sprintf
    funciones.o(.text) refers to stm32f4xx_hal_gpio.o(.text) for HAL_GPIO_TogglePin
    funciones.o(.text) refers to usbfunc.o(.text) for addStarttobuffer
    funciones.o(.text) refers to main.o(.bss) for TxMessage
    funciones.o(.text) refers to funciones.o(.data) for .data
    funciones.o(.text) refers to main.o(.data) for ADQOK
    funciones.o(.text) refers to main.o(.data) for MOUNT
    funciones.o(.text) refers to main.o(.bss) for FATFS_USB_FS
    funciones.o(.text) refers to main.o(.data) for fres
    funciones.o(.text) refers to main.o(.data) for OPEN
    funciones.o(.text) refers to main.o(.bss) for fil
    funciones.o(.text) refers to main.o(.data) for time
    funciones.o(.text) refers to main.o(.data) for TPS
    funciones.o(.text) refers to main.o(.data) for ECT
    funciones.o(.text) refers to main.o(.data) for RPM
    funciones.o(.text) refers to main.o(.data) for Lambda
    funciones.o(.text) refers to main.o(.data) for IAT
    funciones.o(.text) refers to main.o(.data) for BAT
    funciones.o(.text) refers to main.o(.data) for VSS
    funciones.o(.text) refers to main.o(.data) for ACCFUEL
    funciones.o(.text) refers to main.o(.data) for MAP
    funciones.o(.text) refers to main.o(.data) for MGP
    funciones.o(.text) refers to main.o(.data) for OILSTATE
    funciones.o(.text) refers to main.o(.data) for speedFR_p
    funciones.o(.text) refers to main.o(.data) for speedFL_p
    funciones.o(.text) refers to main.o(.data) for speedRL_p
    funciones.o(.text) refers to main.o(.data) for speedRR_p
    funciones.o(.text) refers to main.o(.data) for DamperFR
    funciones.o(.text) refers to main.o(.data) for DamperFL
    funciones.o(.text) refers to main.o(.data) for DamperRL
    funciones.o(.text) refers to main.o(.data) for DamperRR
    funciones.o(.text) refers to main.o(.data) for BrakePressF
    funciones.o(.text) refers to main.o(.data) for BrakePressR
    funciones.o(.text) refers to main.o(.data) for TempFRTireO
    funciones.o(.text) refers to main.o(.data) for TempFRTireMI
    funciones.o(.text) refers to main.o(.data) for TempFRTireMO
    funciones.o(.text) refers to main.o(.data) for TempFRTireM
    funciones.o(.text) refers to main.o(.data) for TempFRTireI
    funciones.o(.text) refers to main.o(.data) for TempFLTireO
    funciones.o(.text) refers to main.o(.data) for TempFLTireMI
    funciones.o(.text) refers to main.o(.data) for TempFLTireMO
    funciones.o(.text) refers to main.o(.data) for TempFLTireM
    funciones.o(.text) refers to main.o(.data) for TempFLTireI
    funciones.o(.text) refers to main.o(.data) for TempRRTireO
    funciones.o(.text) refers to main.o(.data) for TempRRTireMI
    funciones.o(.text) refers to main.o(.data) for TempRRTireMO
    funciones.o(.text) refers to main.o(.data) for TempRRTireM
    funciones.o(.text) refers to main.o(.data) for TempRRTireI
    funciones.o(.text) refers to main.o(.data) for TempRLTireO
    funciones.o(.text) refers to main.o(.data) for TempRLTireMI
    funciones.o(.text) refers to main.o(.data) for TempRLTireMO
    funciones.o(.text) refers to main.o(.data) for TempRLTireM
    funciones.o(.text) refers to main.o(.data) for TempRLTireI
    funciones.o(.text) refers to main.o(.data) for TempFRDisc
    funciones.o(.text) refers to main.o(.data) for TempFLDisc
    funciones.o(.text) refers to main.o(.data) for TempRRDisc
    funciones.o(.text) refers to main.o(.data) for TempRLDisc
    funciones.o(.text) refers to main.o(.data) for SWSens
    funciones.o(.text) refers to main.o(.data) for CurrentSens
    funciones.o(.text) refers to main.o(.bss) for IMU
    funciones.o(.text) refers to main.o(.data) for Termopar_A
    funciones.o(.text) refers to main.o(.data) for Termopar_B
    funciones.o(.text) refers to main.o(.data) for Termopar_C
    funciones.o(.text) refers to main.o(.data) for Termopar_D
    funciones.o(.text) refers to main.o(.data) for Termopar_E
    funciones.o(.text) refers to main.o(.data) for Termopar_F
    funciones.o(.text) refers to main.o(.data) for Termopar_G
    funciones.o(.text) refers to main.o(.data) for Termopar_H
    funciones.o(.text) refers to main.o(.data) for Termopar_I
    funciones.o(.text) refers to main.o(.data) for Termopar_J
    funciones.o(.text) refers to main.o(.data) for Termopar_K
    funciones.o(.text) refers to main.o(.data) for Termopar_L
    funciones.o(.text) refers to llshl.o(.text) for __aeabi_llsl
    funciones.o(.text) refers to main.o(.data) for beacon
    funciones.o(.text) refers to tc.o(.data) for shift_up_req
    funciones.o(.text) refers to main.o(.data) for lapTimeMilis
    funciones.o(.text) refers to main.o(.data) for overTime
    funciones.o(.text) refers to main.o(.data) for GEAR
    funciones.o(.text) refers to main.o(.data) for TempFRCal
    funciones.o(.text) refers to main.o(.data) for TempFLCal
    funciones.o(.text) refers to llushr.o(.text) for __aeabi_llsr
    funciones.o(.text) refers to main.o(.data) for TempRRCal
    funciones.o(.text) refers to main.o(.data) for TempRLCal
    funciones.o(.text) refers to main.o(.data) for batteryCurrent
    funciones.o(.text) refers to main.o(.data) for cellVoltage1
    funciones.o(.text) refers to main.o(.data) for cellVoltage2
    funciones.o(.text) refers to main.o(.data) for cellVoltage3
    funciones.o(.text) refers to main.o(.data) for cellVoltage4
    funciones.o(.text) refers to ale_usart_f4.o(.text) for ALE_USART_Init
    funciones.o(.text) refers to stm32f4xx_hal_cortex.o(.text) for HAL_NVIC_DisableIRQ
    funciones.o(.text) refers to packet.o(.text) for packet_process_byte
    funciones.o(.text) refers to ale_buffer.o(.text) for buffer_append_int16
    funciones.o(.text) refers to main.o(.bss) for ahus2
    funciones.o(.text) refers to main.o(.bss) for huart2
    funciones.o(.text) refers to main.o(.data) for BB_Position
    funciones.o(.text) refers to main.o(.data) for BB_Target
    funciones.o(.text) refers to main.o(.data) for BB_ON_OFF
    funciones.o(.text) refers to main.o(.data) for configADQ
    funciones.o(.text) refers to main.o(.data) for configFront
    funciones.o(.text) refers to main.o(.data) for configRear
    funciones.o(.text) refers to main.o(.data) for configESW
    funciones.o(.text) refers to main.o(.data) for RPM12
    funciones.o(.text) refers to main.o(.data) for RPM23
    funciones.o(.text) refers to main.o(.data) for RPM34
    funciones.o(.text) refers to main.o(.data) for AS_ON_OFF
    funciones.o(.text) refers to main.o(.data) for SPARK_CUT_TIME_1
    funciones.o(.text) refers to main.o(.data) for SPARK_CUT_TIME_2
    funciones.o(.text) refers to main.o(.data) for GEAR_UP_TIME_1
    funciones.o(.text) refers to main.o(.data) for GEAR_UP_TIME_2
    funciones.o(.text) refers to main.o(.data) for FTS_ON_OFF
    funciones.o(.text) refers to main.o(.data) for RPMTARGET
    funciones.o(.text) refers to main.o(.data) for LCSMAXSPEED
    funciones.o(.text) refers to main.o(.data) for kp
    funciones.o(.text) refers to main.o(.data) for ki
    funciones.o(.text) refers to main.o(.data) for kd
    funciones.o(.text) refers to main.o(.data) for LCS_ON_OFF
    ale_tim.o(.text) refers to stm32f4xx_hal_cortex.o(.text) for HAL_NVIC_SetPriority
    ale_tim.o(.text) refers to stm32f4xx_hal_tim.o(.text) for HAL_TIM_Base_Init
    ale_tim.o(.text) refers to stm32f4xx_hal_tim_ex.o(.text) for HAL_TIMEx_MasterConfigSynchronization
    ale_usart_f4.o(.text) refers to ale_gpio_f4.o(.text) for ALE_GPIO_Clk_Enable
    ale_usart_f4.o(.text) refers to stm32f4xx_hal_gpio.o(.text) for HAL_GPIO_Init
    ale_usart_f4.o(.text) refers to stm32f4xx_hal_cortex.o(.text) for HAL_NVIC_SetPriority
    ale_usart_f4.o(.text) refers to stm32f4xx_hal_usart.o(.text) for HAL_USART_Init
    crc.o(.text) refers to crc.o(.constdata) for .constdata
    packet.o(.text) refers to memcpya.o(.text) for __aeabi_memcpy
    packet.o(.text) refers to crc.o(.text) for crc16
    packet.o(.text) refers to packet.o(.bss) for .bss
    tc.o(.text) refers to stm32f4xx_hal_tim.o(.text) for HAL_TIM_Base_Start_IT
    tc.o(.text) refers to stm32f4xx_hal_gpio.o(.text) for HAL_GPIO_WritePin
    tc.o(.text) refers to stm32f4xx_hal_tim_ex.o(.text) for HAL_TIMEx_MasterConfigSynchronization
    tc.o(.text) refers to stm32f4xx_hal_cortex.o(.text) for HAL_NVIC_SetPriority
    tc.o(.text) refers to tc.o(.data) for .data
    tc.o(.text) refers to main.o(.bss) for htim4
    tc.o(.text) refers to main.o(.bss) for htim6
    tc.o(.text) refers to tc.o(.constdata) for .constdata
    tc.o(.text) refers to main.o(.data) for GEAR
    usbh_conf.o(.text) refers to tm_stm32_usb.o(.text) for TM_USB_InitFS
    usbh_conf.o(.text) refers to usbh_core.o(.text) for USBH_LL_IncTimer
    usbh_conf.o(.text) refers to stm32f4xx_hal_hcd.o(.text) for HAL_HCD_Init
    usbh_conf.o(.text) refers to tm_stm32_delay.o(.text) for HAL_Delay
    usbh_conf.o(.text) refers to usbh_conf.o(.bss) for .bss
    usbh_core.o(.text) refers to usbh_conf.o(.text) for USBH_LL_Init
    usbh_core.o(.text) refers to printfa.o(i.__0printf) for __2printf
    usbh_core.o(.text) refers to usbh_pipes.o(.text) for USBH_FreePipe
    usbh_core.o(.text) refers to usbh_ctlreq.o(.text) for USBH_Get_DevDesc
    usbh_ctlreq.o(.text) refers to usbh_ioreq.o(.text) for USBH_CtlSendSetup
    usbh_ctlreq.o(.text) refers to usbh_conf.o(.text) for USBH_LL_GetURBState
    usbh_ctlreq.o(.text) refers to printfa.o(i.__0printf) for __2printf
    usbh_ioreq.o(.text) refers to usbh_conf.o(.text) for USBH_LL_SubmitURB
    usbh_pipes.o(.text) refers to usbh_conf.o(.text) for USBH_LL_OpenPipe
    usbh_msc.o(.text) refers to usbh_core.o(.text) for USBH_FindInterface
    usbh_msc.o(.text) refers to malloc.o(i.malloc) for malloc
    usbh_msc.o(.text) refers to usbh_pipes.o(.text) for USBH_AllocPipe
    usbh_msc.o(.text) refers to usbh_msc_bot.o(.text) for USBH_MSC_BOT_Init
    usbh_msc.o(.text) refers to memseta.o(.text) for __aeabi_memclr4
    usbh_msc.o(.text) refers to usbh_conf.o(.text) for USBH_LL_SetToggle
    usbh_msc.o(.text) refers to malloc.o(i.free) for free
    usbh_msc.o(.text) refers to printfa.o(i.__0printf) for __2printf
    usbh_msc.o(.text) refers to usbh_ctlreq.o(.text) for USBH_ClrFeature
    usbh_msc.o(.text) refers to usbh_msc_scsi.o(.text) for USBH_MSC_SCSI_Inquiry
    usbh_msc.o(.data) refers to usbh_msc.o(.conststring) for .conststring
    usbh_msc.o(.data) refers to usbh_msc.o(.text) for USBH_MSC_InterfaceInit
    usbh_msc_bot.o(.text) refers to usbh_ctlreq.o(.text) for USBH_CtlReq
    usbh_msc_bot.o(.text) refers to usbh_ioreq.o(.text) for USBH_BulkSendData
    usbh_msc_bot.o(.text) refers to usbh_conf.o(.text) for USBH_LL_GetURBState
    usbh_msc_scsi.o(.text) refers to usbh_msc_bot.o(.text) for USBH_MSC_BOT_Process
    usbh_msc_scsi.o(.text) refers to memseta.o(.text) for __aeabi_memclr
    diskio.o(.text) refers to diskio.o(.data) for .data
    diskio.o(.data) refers to diskio.o(.text) for TM_FATFS_SD_disk_initialize
    diskio.o(.data) refers to fatfs_usb.o(.text) for TM_FATFS_USBFS_disk_initialize
    ff.o(.text) refers to diskio.o(.text) for disk_write
    ff.o(.text) refers to unicode.o(.text) for ff_wtoupper
    ff.o(.text) refers to ff.o(.constdata) for .constdata
    ff.o(.text) refers to ff.o(.data) for .data
    ff.o(.text) refers to ff.o(.bss) for .bss
    ff.o(.text) refers to syscall.o(.text) for ff_memalloc
    ff.o(.text) refers to uldiv.o(.text) for __aeabi_uldivmod
    ff.o(.constdata) refers to ff.o(.conststring) for .conststring
    syscall.o(.text) refers to malloc.o(i.malloc) for malloc
    syscall.o(.text) refers to malloc.o(i.free) for free
    unicode.o(.text) refers to unicode.o(.constdata) for .constdata
    fatfs_usb.o(.text) refers to usbh_msc.o(.text) for USBH_MSC_UnitIsReady
    fatfs_usb.o(.text) refers to memcpya.o(.text) for __aeabi_memcpy
    fatfs_usb.o(.text) refers to printfa.o(i.__0printf) for __2printf
    fatfs_usb.o(.text) refers to tm_stm32_usb_host.o(.bss) for hUSBHost_FS
    fatfs_usb.o(.text) refers to usbh_msc.o(.data) for USBH_msc
    ff_gen_drv.o(.text) refers to ff_gen_drv.o(.bss) for .bss
    entry.o(.ARM.Collect$$$$00000000) refers (Special) to entry10a.o(.ARM.Collect$$$$0000000D) for __rt_final_cpp
    entry.o(.ARM.Collect$$$$00000000) refers (Special) to entry11a.o(.ARM.Collect$$$$0000000F) for __rt_final_exit
    entry.o(.ARM.Collect$$$$00000000) refers (Special) to entry7b.o(.ARM.Collect$$$$00000008) for _main_clock
    entry.o(.ARM.Collect$$$$00000000) refers (Special) to entry8b.o(.ARM.Collect$$$$0000000A) for _main_cpp_init
    entry.o(.ARM.Collect$$$$00000000) refers (Special) to entry9a.o(.ARM.Collect$$$$0000000B) for _main_init
    entry.o(.ARM.Collect$$$$00000000) refers (Special) to entry5.o(.ARM.Collect$$$$00000004) for _main_scatterload
    entry.o(.ARM.Collect$$$$00000000) refers (Special) to entry2.o(.ARM.Collect$$$$00000001) for _main_stk
    uldiv.o(.text) refers to llushr.o(.text) for __aeabi_llsr
    uldiv.o(.text) refers to llshl.o(.text) for __aeabi_llsl
    printfb.o(i.__0fprintf$bare) refers to printfb.o(i._printf_core) for _printf_core
    printfb.o(i.__0fprintf$bare) refers to funciones.o(.text) for fputc
    printfb.o(i.__0printf$bare) refers to printfb.o(i._printf_core) for _printf_core
    printfb.o(i.__0printf$bare) refers to funciones.o(.text) for fputc
    printfb.o(i.__0printf$bare) refers to stdout.o(.data) for __stdout
    printfb.o(i.__0snprintf$bare) refers to printfb.o(i._printf_core) for _printf_core
    printfb.o(i.__0snprintf$bare) refers to printfb.o(i._snputc) for _snputc
    printfb.o(i.__0sprintf$bare) refers to printfb.o(i._printf_core) for _printf_core
    printfb.o(i.__0sprintf$bare) refers to printfb.o(i._sputc) for _sputc
    printfb.o(i.__0vfprintf$bare) refers to printfb.o(i._printf_core) for _printf_core
    printfb.o(i.__0vfprintf$bare) refers to funciones.o(.text) for fputc
    printfb.o(i.__0vprintf$bare) refers to printfb.o(i._printf_core) for _printf_core
    printfb.o(i.__0vprintf$bare) refers to funciones.o(.text) for fputc
    printfb.o(i.__0vprintf$bare) refers to stdout.o(.data) for __stdout
    printfb.o(i.__0vsnprintf$bare) refers to printfb.o(i._printf_core) for _printf_core
    printfb.o(i.__0vsnprintf$bare) refers to printfb.o(i._snputc) for _snputc
    printfb.o(i.__0vsprintf$bare) refers to printfb.o(i._printf_core) for _printf_core
    printfb.o(i.__0vsprintf$bare) refers to printfb.o(i._sputc) for _sputc
    printf0.o(i.__0fprintf$0) refers to printf0.o(i._printf_core) for _printf_core
    printf0.o(i.__0fprintf$0) refers to funciones.o(.text) for fputc
    printf0.o(i.__0printf$0) refers to printf0.o(i._printf_core) for _printf_core
    printf0.o(i.__0printf$0) refers to funciones.o(.text) for fputc
    printf0.o(i.__0printf$0) refers to stdout.o(.data) for __stdout
    printf0.o(i.__0snprintf$0) refers to printf0.o(i._printf_core) for _printf_core
    printf0.o(i.__0snprintf$0) refers to printf0.o(i._snputc) for _snputc
    printf0.o(i.__0sprintf$0) refers to printf0.o(i._printf_core) for _printf_core
    printf0.o(i.__0sprintf$0) refers to printf0.o(i._sputc) for _sputc
    printf0.o(i.__0vfprintf$0) refers to printf0.o(i._printf_core) for _printf_core
    printf0.o(i.__0vfprintf$0) refers to funciones.o(.text) for fputc
    printf0.o(i.__0vprintf$0) refers to printf0.o(i._printf_core) for _printf_core
    printf0.o(i.__0vprintf$0) refers to funciones.o(.text) for fputc
    printf0.o(i.__0vprintf$0) refers to stdout.o(.data) for __stdout
    printf0.o(i.__0vsnprintf$0) refers to printf0.o(i._printf_core) for _printf_core
    printf0.o(i.__0vsnprintf$0) refers to printf0.o(i._snputc) for _snputc
    printf0.o(i.__0vsprintf$0) refers to printf0.o(i._printf_core) for _printf_core
    printf0.o(i.__0vsprintf$0) refers to printf0.o(i._sputc) for _sputc
    printf1.o(i.__0fprintf$1) refers to printf1.o(i._printf_core) for _printf_core
    printf1.o(i.__0fprintf$1) refers to funciones.o(.text) for fputc
    printf1.o(i.__0printf$1) refers to printf1.o(i._printf_core) for _printf_core
    printf1.o(i.__0printf$1) refers to funciones.o(.text) for fputc
    printf1.o(i.__0printf$1) refers to stdout.o(.data) for __stdout
    printf1.o(i.__0snprintf$1) refers to printf1.o(i._printf_core) for _printf_core
    printf1.o(i.__0snprintf$1) refers to printf1.o(i._snputc) for _snputc
    printf1.o(i.__0sprintf$1) refers to printf1.o(i._printf_core) for _printf_core
    printf1.o(i.__0sprintf$1) refers to printf1.o(i._sputc) for _sputc
    printf1.o(i.__0vfprintf$1) refers to printf1.o(i._printf_core) for _printf_core
    printf1.o(i.__0vfprintf$1) refers to funciones.o(.text) for fputc
    printf1.o(i.__0vprintf$1) refers to printf1.o(i._printf_core) for _printf_core
    printf1.o(i.__0vprintf$1) refers to funciones.o(.text) for fputc
    printf1.o(i.__0vprintf$1) refers to stdout.o(.data) for __stdout
    printf1.o(i.__0vsnprintf$1) refers to printf1.o(i._printf_core) for _printf_core
    printf1.o(i.__0vsnprintf$1) refers to printf1.o(i._snputc) for _snputc
    printf1.o(i.__0vsprintf$1) refers to printf1.o(i._printf_core) for _printf_core
    printf1.o(i.__0vsprintf$1) refers to printf1.o(i._sputc) for _sputc
    printf1.o(i._printf_core) refers to uidiv.o(.text) for __aeabi_uidivmod
    printf2.o(i.__0fprintf$2) refers to printf2.o(i._printf_core) for _printf_core
    printf2.o(i.__0fprintf$2) refers to funciones.o(.text) for fputc
    printf2.o(i.__0printf$2) refers to printf2.o(i._printf_core) for _printf_core
    printf2.o(i.__0printf$2) refers to funciones.o(.text) for fputc
    printf2.o(i.__0printf$2) refers to stdout.o(.data) for __stdout
    printf2.o(i.__0snprintf$2) refers to printf2.o(i._printf_core) for _printf_core
    printf2.o(i.__0snprintf$2) refers to printf2.o(i._snputc) for _snputc
    printf2.o(i.__0sprintf$2) refers to printf2.o(i._printf_core) for _printf_core
    printf2.o(i.__0sprintf$2) refers to printf2.o(i._sputc) for _sputc
    printf2.o(i.__0vfprintf$2) refers to printf2.o(i._printf_core) for _printf_core
    printf2.o(i.__0vfprintf$2) refers to funciones.o(.text) for fputc
    printf2.o(i.__0vprintf$2) refers to printf2.o(i._printf_core) for _printf_core
    printf2.o(i.__0vprintf$2) refers to funciones.o(.text) for fputc
    printf2.o(i.__0vprintf$2) refers to stdout.o(.data) for __stdout
    printf2.o(i.__0vsnprintf$2) refers to printf2.o(i._printf_core) for _printf_core
    printf2.o(i.__0vsnprintf$2) refers to printf2.o(i._snputc) for _snputc
    printf2.o(i.__0vsprintf$2) refers to printf2.o(i._printf_core) for _printf_core
    printf2.o(i.__0vsprintf$2) refers to printf2.o(i._sputc) for _sputc
    printf3.o(i.__0fprintf$3) refers to printf3.o(i._printf_core) for _printf_core
    printf3.o(i.__0fprintf$3) refers to funciones.o(.text) for fputc
    printf3.o(i.__0printf$3) refers to printf3.o(i._printf_core) for _printf_core
    printf3.o(i.__0printf$3) refers to funciones.o(.text) for fputc
    printf3.o(i.__0printf$3) refers to stdout.o(.data) for __stdout
    printf3.o(i.__0snprintf$3) refers to printf3.o(i._printf_core) for _printf_core
    printf3.o(i.__0snprintf$3) refers to printf3.o(i._snputc) for _snputc
    printf3.o(i.__0sprintf$3) refers to printf3.o(i._printf_core) for _printf_core
    printf3.o(i.__0sprintf$3) refers to printf3.o(i._sputc) for _sputc
    printf3.o(i.__0vfprintf$3) refers to printf3.o(i._printf_core) for _printf_core
    printf3.o(i.__0vfprintf$3) refers to funciones.o(.text) for fputc
    printf3.o(i.__0vprintf$3) refers to printf3.o(i._printf_core) for _printf_core
    printf3.o(i.__0vprintf$3) refers to funciones.o(.text) for fputc
    printf3.o(i.__0vprintf$3) refers to stdout.o(.data) for __stdout
    printf3.o(i.__0vsnprintf$3) refers to printf3.o(i._printf_core) for _printf_core
    printf3.o(i.__0vsnprintf$3) refers to printf3.o(i._snputc) for _snputc
    printf3.o(i.__0vsprintf$3) refers to printf3.o(i._printf_core) for _printf_core
    printf3.o(i.__0vsprintf$3) refers to printf3.o(i._sputc) for _sputc
    printf3.o(i._printf_core) refers to uidiv.o(.text) for __aeabi_uidivmod
    printf4.o(i.__0fprintf$4) refers to printf4.o(i._printf_core) for _printf_core
    printf4.o(i.__0fprintf$4) refers to funciones.o(.text) for fputc
    printf4.o(i.__0printf$4) refers to printf4.o(i._printf_core) for _printf_core
    printf4.o(i.__0printf$4) refers to funciones.o(.text) for fputc
    printf4.o(i.__0printf$4) refers to stdout.o(.data) for __stdout
    printf4.o(i.__0snprintf$4) refers to printf4.o(i._printf_core) for _printf_core
    printf4.o(i.__0snprintf$4) refers to printf4.o(i._snputc) for _snputc
    printf4.o(i.__0sprintf$4) refers to printf4.o(i._printf_core) for _printf_core
    printf4.o(i.__0sprintf$4) refers to printf4.o(i._sputc) for _sputc
    printf4.o(i.__0vfprintf$4) refers to printf4.o(i._printf_core) for _printf_core
    printf4.o(i.__0vfprintf$4) refers to funciones.o(.text) for fputc
    printf4.o(i.__0vprintf$4) refers to printf4.o(i._printf_core) for _printf_core
    printf4.o(i.__0vprintf$4) refers to funciones.o(.text) for fputc
    printf4.o(i.__0vprintf$4) refers to stdout.o(.data) for __stdout
    printf4.o(i.__0vsnprintf$4) refers to printf4.o(i._printf_core) for _printf_core
    printf4.o(i.__0vsnprintf$4) refers to printf4.o(i._snputc) for _snputc
    printf4.o(i.__0vsprintf$4) refers to printf4.o(i._printf_core) for _printf_core
    printf4.o(i.__0vsprintf$4) refers to printf4.o(i._sputc) for _sputc
    printf4.o(i._printf_core) refers to uldiv.o(.text) for __aeabi_uldivmod
    printf5.o(i.__0fprintf$5) refers to printf5.o(i._printf_core) for _printf_core
    printf5.o(i.__0fprintf$5) refers to funciones.o(.text) for fputc
    printf5.o(i.__0printf$5) refers to printf5.o(i._printf_core) for _printf_core
    printf5.o(i.__0printf$5) refers to funciones.o(.text) for fputc
    printf5.o(i.__0printf$5) refers to stdout.o(.data) for __stdout
    printf5.o(i.__0snprintf$5) refers to printf5.o(i._printf_core) for _printf_core
    printf5.o(i.__0snprintf$5) refers to printf5.o(i._snputc) for _snputc
    printf5.o(i.__0sprintf$5) refers to printf5.o(i._printf_core) for _printf_core
    printf5.o(i.__0sprintf$5) refers to printf5.o(i._sputc) for _sputc
    printf5.o(i.__0vfprintf$5) refers to printf5.o(i._printf_core) for _printf_core
    printf5.o(i.__0vfprintf$5) refers to funciones.o(.text) for fputc
    printf5.o(i.__0vprintf$5) refers to printf5.o(i._printf_core) for _printf_core
    printf5.o(i.__0vprintf$5) refers to funciones.o(.text) for fputc
    printf5.o(i.__0vprintf$5) refers to stdout.o(.data) for __stdout
    printf5.o(i.__0vsnprintf$5) refers to printf5.o(i._printf_core) for _printf_core
    printf5.o(i.__0vsnprintf$5) refers to printf5.o(i._snputc) for _snputc
    printf5.o(i.__0vsprintf$5) refers to printf5.o(i._printf_core) for _printf_core
    printf5.o(i.__0vsprintf$5) refers to printf5.o(i._sputc) for _sputc
    printf5.o(i._printf_core) refers to uldiv.o(.text) for __aeabi_uldivmod
    printf6.o(i.__0fprintf$6) refers to printf6.o(i._printf_core) for _printf_core
    printf6.o(i.__0fprintf$6) refers to funciones.o(.text) for fputc
    printf6.o(i.__0printf$6) refers to printf6.o(i._printf_core) for _printf_core
    printf6.o(i.__0printf$6) refers to funciones.o(.text) for fputc
    printf6.o(i.__0printf$6) refers to stdout.o(.data) for __stdout
    printf6.o(i.__0snprintf$6) refers to printf6.o(i._printf_core) for _printf_core
    printf6.o(i.__0snprintf$6) refers to printf6.o(i._snputc) for _snputc
    printf6.o(i.__0sprintf$6) refers to printf6.o(i._printf_core) for _printf_core
    printf6.o(i.__0sprintf$6) refers to printf6.o(i._sputc) for _sputc
    printf6.o(i.__0vfprintf$6) refers to printf6.o(i._printf_core) for _printf_core
    printf6.o(i.__0vfprintf$6) refers to funciones.o(.text) for fputc
    printf6.o(i.__0vprintf$6) refers to printf6.o(i._printf_core) for _printf_core
    printf6.o(i.__0vprintf$6) refers to funciones.o(.text) for fputc
    printf6.o(i.__0vprintf$6) refers to stdout.o(.data) for __stdout
    printf6.o(i.__0vsnprintf$6) refers to printf6.o(i._printf_core) for _printf_core
    printf6.o(i.__0vsnprintf$6) refers to printf6.o(i._snputc) for _snputc
    printf6.o(i.__0vsprintf$6) refers to printf6.o(i._printf_core) for _printf_core
    printf6.o(i.__0vsprintf$6) refers to printf6.o(i._sputc) for _sputc
    printf6.o(i._printf_core) refers to printf6.o(i._printf_pre_padding) for _printf_pre_padding
    printf6.o(i._printf_core) refers to uidiv.o(.text) for __aeabi_uidivmod
    printf6.o(i._printf_core) refers to printf6.o(i._printf_post_padding) for _printf_post_padding
    printf7.o(i.__0fprintf$7) refers to printf7.o(i._printf_core) for _printf_core
    printf7.o(i.__0fprintf$7) refers to funciones.o(.text) for fputc
    printf7.o(i.__0printf$7) refers to printf7.o(i._printf_core) for _printf_core
    printf7.o(i.__0printf$7) refers to funciones.o(.text) for fputc
    printf7.o(i.__0printf$7) refers to stdout.o(.data) for __stdout
    printf7.o(i.__0snprintf$7) refers to printf7.o(i._printf_core) for _printf_core
    printf7.o(i.__0snprintf$7) refers to printf7.o(i._snputc) for _snputc
    printf7.o(i.__0sprintf$7) refers to printf7.o(i._printf_core) for _printf_core
    printf7.o(i.__0sprintf$7) refers to printf7.o(i._sputc) for _sputc
    printf7.o(i.__0vfprintf$7) refers to printf7.o(i._printf_core) for _printf_core
    printf7.o(i.__0vfprintf$7) refers to funciones.o(.text) for fputc
    printf7.o(i.__0vprintf$7) refers to printf7.o(i._printf_core) for _printf_core
    printf7.o(i.__0vprintf$7) refers to funciones.o(.text) for fputc
    printf7.o(i.__0vprintf$7) refers to stdout.o(.data) for __stdout
    printf7.o(i.__0vsnprintf$7) refers to printf7.o(i._printf_core) for _printf_core
    printf7.o(i.__0vsnprintf$7) refers to printf7.o(i._snputc) for _snputc
    printf7.o(i.__0vsprintf$7) refers to printf7.o(i._printf_core) for _printf_core
    printf7.o(i.__0vsprintf$7) refers to printf7.o(i._sputc) for _sputc
    printf7.o(i._printf_core) refers to printf7.o(i._printf_pre_padding) for _printf_pre_padding
    printf7.o(i._printf_core) refers to uldiv.o(.text) for __aeabi_uldivmod
    printf7.o(i._printf_core) refers to printf7.o(i._printf_post_padding) for _printf_post_padding
    printf8.o(i.__0fprintf$8) refers to printf8.o(i._printf_core) for _printf_core
    printf8.o(i.__0fprintf$8) refers to funciones.o(.text) for fputc
    printf8.o(i.__0printf$8) refers to printf8.o(i._printf_core) for _printf_core
    printf8.o(i.__0printf$8) refers to funciones.o(.text) for fputc
    printf8.o(i.__0printf$8) refers to stdout.o(.data) for __stdout
    printf8.o(i.__0snprintf$8) refers to printf8.o(i._printf_core) for _printf_core
    printf8.o(i.__0snprintf$8) refers to printf8.o(i._snputc) for _snputc
    printf8.o(i.__0sprintf$8) refers to printf8.o(i._printf_core) for _printf_core
    printf8.o(i.__0sprintf$8) refers to printf8.o(i._sputc) for _sputc
    printf8.o(i.__0vfprintf$8) refers to printf8.o(i._printf_core) for _printf_core
    printf8.o(i.__0vfprintf$8) refers to funciones.o(.text) for fputc
    printf8.o(i.__0vprintf$8) refers to printf8.o(i._printf_core) for _printf_core
    printf8.o(i.__0vprintf$8) refers to funciones.o(.text) for fputc
    printf8.o(i.__0vprintf$8) refers to stdout.o(.data) for __stdout
    printf8.o(i.__0vsnprintf$8) refers to printf8.o(i._printf_core) for _printf_core
    printf8.o(i.__0vsnprintf$8) refers to printf8.o(i._snputc) for _snputc
    printf8.o(i.__0vsprintf$8) refers to printf8.o(i._printf_core) for _printf_core
    printf8.o(i.__0vsprintf$8) refers to printf8.o(i._sputc) for _sputc
    printf8.o(i._printf_core) refers to printf8.o(i._printf_pre_padding) for _printf_pre_padding
    printf8.o(i._printf_core) refers to uldiv.o(.text) for __aeabi_uldivmod
    printf8.o(i._printf_core) refers to printf8.o(i._printf_post_padding) for _printf_post_padding
    printfa.o(i.__0fprintf) refers (Special) to iusefp.o(.text) for __I$use$fp
    printfa.o(i.__0fprintf) refers to printfa.o(i._printf_core) for _printf_core
    printfa.o(i.__0fprintf) refers to funciones.o(.text) for fputc
    printfa.o(i.__0printf) refers (Special) to iusefp.o(.text) for __I$use$fp
    printfa.o(i.__0printf) refers to printfa.o(i._printf_core) for _printf_core
    printfa.o(i.__0printf) refers to funciones.o(.text) for fputc
    printfa.o(i.__0printf) refers to stdout.o(.data) for __stdout
    printfa.o(i.__0snprintf) refers (Special) to iusefp.o(.text) for __I$use$fp
    printfa.o(i.__0snprintf) refers to printfa.o(i._printf_core) for _printf_core
    printfa.o(i.__0snprintf) refers to printfa.o(i._snputc) for _snputc
    printfa.o(i.__0sprintf) refers (Special) to iusefp.o(.text) for __I$use$fp
    printfa.o(i.__0sprintf) refers to printfa.o(i._printf_core) for _printf_core
    printfa.o(i.__0sprintf) refers to printfa.o(i._sputc) for _sputc
    printfa.o(i.__0vfprintf) refers (Special) to iusefp.o(.text) for __I$use$fp
    printfa.o(i.__0vfprintf) refers to printfa.o(i._printf_core) for _printf_core
    printfa.o(i.__0vfprintf) refers to funciones.o(.text) for fputc
    printfa.o(i.__0vprintf) refers (Special) to iusefp.o(.text) for __I$use$fp
    printfa.o(i.__0vprintf) refers to printfa.o(i._printf_core) for _printf_core
    printfa.o(i.__0vprintf) refers to funciones.o(.text) for fputc
    printfa.o(i.__0vprintf) refers to stdout.o(.data) for __stdout
    printfa.o(i.__0vsnprintf) refers (Special) to iusefp.o(.text) for __I$use$fp
    printfa.o(i.__0vsnprintf) refers to printfa.o(i._printf_core) for _printf_core
    printfa.o(i.__0vsnprintf) refers to printfa.o(i._snputc) for _snputc
    printfa.o(i.__0vsprintf) refers (Special) to iusefp.o(.text) for __I$use$fp
    printfa.o(i.__0vsprintf) refers to printfa.o(i._printf_core) for _printf_core
    printfa.o(i.__0vsprintf) refers to printfa.o(i._sputc) for _sputc
    printfa.o(i._fp_digits) refers (Special) to iusefp.o(.text) for __I$use$fp
    printfa.o(i._fp_digits) refers to dmul.o(.text) for __aeabi_dmul
    printfa.o(i._fp_digits) refers to ddiv.o(.text) for __aeabi_ddiv
    printfa.o(i._fp_digits) refers to cdrcmple.o(.text) for __aeabi_cdrcmple
    printfa.o(i._fp_digits) refers to dadd.o(.text) for __aeabi_dadd
    printfa.o(i._fp_digits) refers to dfixul.o(.text) for __aeabi_d2ulz
    printfa.o(i._fp_digits) refers to uldiv.o(.text) for __aeabi_uldivmod
    printfa.o(i._printf_core) refers (Special) to iusefp.o(.text) for __I$use$fp
    printfa.o(i._printf_core) refers to printfa.o(i._printf_pre_padding) for _printf_pre_padding
    printfa.o(i._printf_core) refers to uldiv.o(.text) for __aeabi_uldivmod
    printfa.o(i._printf_core) refers to printfa.o(i._printf_post_padding) for _printf_post_padding
    printfa.o(i._printf_core) refers to printfa.o(i._fp_digits) for _fp_digits
    printfa.o(i._printf_core) refers to uidiv.o(.text) for __aeabi_uidivmod
    printfa.o(i._printf_post_padding) refers (Special) to iusefp.o(.text) for __I$use$fp
    printfa.o(i._printf_pre_padding) refers (Special) to iusefp.o(.text) for __I$use$fp
    printfa.o(i._snputc) refers (Special) to iusefp.o(.text) for __I$use$fp
    printfa.o(i._sputc) refers (Special) to iusefp.o(.text) for __I$use$fp
    malloc.o(i.free) refers to mvars.o(.data) for __microlib_freelist
    malloc.o(i.malloc) refers to mvars.o(.data) for __microlib_freelist_initialised
    malloc.o(i.malloc) refers to mvars.o(.data) for __microlib_freelist
    malloc.o(i.malloc) refers to startup_stm32f446xx.o(HEAP) for __heap_base
    mallocr.o(i.__free$realloc) refers to mvars.o(.data) for __microlib_freelist
    mallocr.o(i.__malloc$realloc) refers to mallocr.o(i.internal_alloc) for internal_alloc
    mallocr.o(i.__malloc$realloc) refers to mvars.o(.data) for __microlib_freelist_initialised
    mallocr.o(i.__malloc$realloc) refers to startup_stm32f446xx.o(HEAP) for __heap_base
    mallocr.o(i.__malloc$realloc) refers to mvars.o(.data) for __microlib_freelist
    mallocr.o(i.internal_alloc) refers to memcpya.o(.text) for __aeabi_memcpy
    mallocr.o(i.internal_alloc) refers to mvars.o(.data) for __microlib_freelist
    mallocr.o(i.realloc) refers to mallocr.o(i.__free$realloc) for __free$realloc
    mallocr.o(i.realloc) refers to mallocr.o(i.internal_alloc) for internal_alloc
    mallocr.o(i.realloc) refers to mallocr.o(i.__malloc$realloc) for __malloc$realloc
    mallocr.o(i.realloc) refers to mvars.o(.data) for __microlib_freelist
    malloca.o(i.__aligned_malloc) refers to mvars.o(.data) for __microlib_freelist_initialised
    malloca.o(i.__aligned_malloc) refers to mvars.o(.data) for __microlib_freelist
    malloca.o(i.__aligned_malloc) refers to startup_stm32f446xx.o(HEAP) for __heap_base
    malloca.o(i.__free$memalign) refers to mvars.o(.data) for __microlib_freelist
    malloca.o(i.__malloc$memalign) refers to malloca.o(i.__aligned_malloc) for __aligned_malloc
    mallocra.o(i.__aligned_malloc$realloc) refers to mallocra.o(i.internal_alloc) for internal_alloc
    mallocra.o(i.__aligned_malloc$realloc) refers to mvars.o(.data) for __microlib_freelist_initialised
    mallocra.o(i.__aligned_malloc$realloc) refers to startup_stm32f446xx.o(HEAP) for __heap_base
    mallocra.o(i.__aligned_malloc$realloc) refers to mvars.o(.data) for __microlib_freelist
    mallocra.o(i.__free$realloc$memalign) refers to mvars.o(.data) for __microlib_freelist
    mallocra.o(i.__malloc$realloc$memalign) refers to mallocra.o(i.__aligned_malloc$realloc) for __aligned_malloc$realloc
    mallocra.o(i.__realloc$memalign) refers to mallocra.o(i.__free$realloc$memalign) for __free$realloc$memalign
    mallocra.o(i.__realloc$memalign) refers to mallocra.o(i.internal_alloc) for internal_alloc
    mallocra.o(i.__realloc$memalign) refers to mallocra.o(i.__malloc$realloc$memalign) for __malloc$realloc$memalign
    mallocra.o(i.__realloc$memalign) refers to mvars.o(.data) for __microlib_freelist
    mallocra.o(i.internal_alloc) refers to memcpya.o(.text) for __aeabi_memcpy
    mallocra.o(i.internal_alloc) refers to mvars.o(.data) for __microlib_freelist
    dmul.o(.text) refers (Special) to iusefp.o(.text) for __I$use$fp
    dmul.o(.text) refers to depilogue.o(.text) for _double_epilogue
    dfltui.o(.text) refers (Special) to iusefp.o(.text) for __I$use$fp
    dfltui.o(.text) refers to depilogue.o(.text) for _double_epilogue
    dfixui.o(.text) refers (Special) to iusefp.o(.text) for __I$use$fp
    dfixui.o(.text) refers to llushr.o(.text) for __aeabi_llsr
    f2d.o(.text) refers (Special) to iusefp.o(.text) for __I$use$fp
    entry2.o(.ARM.Collect$$$$00000001) refers to entry2.o(.ARM.Collect$$$$00002712) for __lit__00000000
    entry2.o(.ARM.Collect$$$$00002712) refers to startup_stm32f446xx.o(STACK) for __initial_sp
    entry2.o(__vectab_stack_and_reset_area) refers to startup_stm32f446xx.o(STACK) for __initial_sp
    entry2.o(__vectab_stack_and_reset_area) refers to entry.o(.ARM.Collect$$$$00000000) for __main
    entry5.o(.ARM.Collect$$$$00000004) refers to init.o(.text) for __scatterload
    entry9a.o(.ARM.Collect$$$$0000000B) refers to main.o(.text) for main
    entry9b.o(.ARM.Collect$$$$0000000C) refers to main.o(.text) for main
    depilogue.o(.text) refers to llshl.o(.text) for __aeabi_llsl
    depilogue.o(.text) refers to llushr.o(.text) for __aeabi_llsr
    dadd.o(.text) refers to llshl.o(.text) for __aeabi_llsl
    dadd.o(.text) refers to llsshr.o(.text) for __aeabi_lasr
    dadd.o(.text) refers to depilogue.o(.text) for _double_epilogue
    ddiv.o(.text) refers to depilogue.o(.text) for _double_round
    dfixul.o(.text) refers to llushr.o(.text) for __aeabi_llsr
    dfixul.o(.text) refers to llshl.o(.text) for __aeabi_llsl
    init.o(.text) refers to entry5.o(.ARM.Collect$$$$00000004) for __main_after_scatterload


==============================================================================

Removing Unused input sections from the image.

    Removing stm32f4xx_hal.o(.rev16_text), (4 bytes).
    Removing stm32f4xx_hal.o(.revsh_text), (4 bytes).
    Removing stm32f4xx_hal.o(.rrx_text), (6 bytes).
    Removing stm32f4xx_hal_can.o(.rev16_text), (4 bytes).
    Removing stm32f4xx_hal_can.o(.revsh_text), (4 bytes).
    Removing stm32f4xx_hal_can.o(.rrx_text), (6 bytes).
    Removing stm32f4xx_hal_cortex.o(.rev16_text), (4 bytes).
    Removing stm32f4xx_hal_cortex.o(.revsh_text), (4 bytes).
    Removing stm32f4xx_hal_cortex.o(.rrx_text), (6 bytes).
    Removing stm32f4xx_hal_crc.o(.rev16_text), (4 bytes).
    Removing stm32f4xx_hal_crc.o(.revsh_text), (4 bytes).
    Removing stm32f4xx_hal_crc.o(.rrx_text), (6 bytes).
    Removing stm32f4xx_hal_crc.o(.text), (220 bytes).
    Removing stm32f4xx_hal_dma.o(.rev16_text), (4 bytes).
    Removing stm32f4xx_hal_dma.o(.revsh_text), (4 bytes).
    Removing stm32f4xx_hal_dma.o(.rrx_text), (6 bytes).
    Removing stm32f4xx_hal_dma_ex.o(.rev16_text), (4 bytes).
    Removing stm32f4xx_hal_dma_ex.o(.revsh_text), (4 bytes).
    Removing stm32f4xx_hal_dma_ex.o(.rrx_text), (6 bytes).
    Removing stm32f4xx_hal_dma_ex.o(.text), (344 bytes).
    Removing stm32f4xx_hal_dma2d.o(.rev16_text), (4 bytes).
    Removing stm32f4xx_hal_dma2d.o(.revsh_text), (4 bytes).
    Removing stm32f4xx_hal_dma2d.o(.rrx_text), (6 bytes).
    Removing stm32f4xx_hal_gpio.o(.rev16_text), (4 bytes).
    Removing stm32f4xx_hal_gpio.o(.revsh_text), (4 bytes).
    Removing stm32f4xx_hal_gpio.o(.rrx_text), (6 bytes).
    Removing stm32f4xx_hal_hcd.o(.rev16_text), (4 bytes).
    Removing stm32f4xx_hal_hcd.o(.revsh_text), (4 bytes).
    Removing stm32f4xx_hal_hcd.o(.rrx_text), (6 bytes).
    Removing stm32f4xx_hal_i2c.o(.rev16_text), (4 bytes).
    Removing stm32f4xx_hal_i2c.o(.revsh_text), (4 bytes).
    Removing stm32f4xx_hal_i2c.o(.rrx_text), (6 bytes).
    Removing stm32f4xx_hal_i2c.o(.text), (7382 bytes).
    Removing stm32f4xx_hal_i2c_ex.o(.rev16_text), (4 bytes).
    Removing stm32f4xx_hal_i2c_ex.o(.revsh_text), (4 bytes).
    Removing stm32f4xx_hal_i2c_ex.o(.rrx_text), (6 bytes).
    Removing stm32f4xx_hal_i2c_ex.o(.text), (152 bytes).
    Removing stm32f4xx_hal_pwr.o(.rev16_text), (4 bytes).
    Removing stm32f4xx_hal_pwr.o(.revsh_text), (4 bytes).
    Removing stm32f4xx_hal_pwr.o(.rrx_text), (6 bytes).
    Removing stm32f4xx_hal_pwr_ex.o(.rev16_text), (4 bytes).
    Removing stm32f4xx_hal_pwr_ex.o(.revsh_text), (4 bytes).
    Removing stm32f4xx_hal_pwr_ex.o(.rrx_text), (6 bytes).
    Removing stm32f4xx_hal_rcc.o(.rev16_text), (4 bytes).
    Removing stm32f4xx_hal_rcc.o(.revsh_text), (4 bytes).
    Removing stm32f4xx_hal_rcc.o(.rrx_text), (6 bytes).
    Removing stm32f4xx_hal_rcc_ex.o(.rev16_text), (4 bytes).
    Removing stm32f4xx_hal_rcc_ex.o(.revsh_text), (4 bytes).
    Removing stm32f4xx_hal_rcc_ex.o(.rrx_text), (6 bytes).
    Removing stm32f4xx_hal_rtc.o(.rev16_text), (4 bytes).
    Removing stm32f4xx_hal_rtc.o(.revsh_text), (4 bytes).
    Removing stm32f4xx_hal_rtc.o(.rrx_text), (6 bytes).
    Removing stm32f4xx_hal_rtc_ex.o(.rev16_text), (4 bytes).
    Removing stm32f4xx_hal_rtc_ex.o(.revsh_text), (4 bytes).
    Removing stm32f4xx_hal_rtc_ex.o(.rrx_text), (6 bytes).
    Removing stm32f4xx_hal_tim.o(.rev16_text), (4 bytes).
    Removing stm32f4xx_hal_tim.o(.revsh_text), (4 bytes).
    Removing stm32f4xx_hal_tim.o(.rrx_text), (6 bytes).
    Removing stm32f4xx_hal_tim_ex.o(.rev16_text), (4 bytes).
    Removing stm32f4xx_hal_tim_ex.o(.revsh_text), (4 bytes).
    Removing stm32f4xx_hal_tim_ex.o(.rrx_text), (6 bytes).
    Removing stm32f4xx_hal_uart.o(.rev16_text), (4 bytes).
    Removing stm32f4xx_hal_uart.o(.revsh_text), (4 bytes).
    Removing stm32f4xx_hal_uart.o(.rrx_text), (6 bytes).
    Removing stm32f4xx_hal_uart.o(.text), (3298 bytes).
    Removing stm32f4xx_hal_usart.o(.rev16_text), (4 bytes).
    Removing stm32f4xx_hal_usart.o(.revsh_text), (4 bytes).
    Removing stm32f4xx_hal_usart.o(.rrx_text), (6 bytes).
    Removing stm32f4xx_ll_usb.o(.rev16_text), (4 bytes).
    Removing stm32f4xx_ll_usb.o(.revsh_text), (4 bytes).
    Removing stm32f4xx_ll_usb.o(.rrx_text), (6 bytes).
    Removing stm32f4xx_hal_spi.o(.rev16_text), (4 bytes).
    Removing stm32f4xx_hal_spi.o(.revsh_text), (4 bytes).
    Removing stm32f4xx_hal_spi.o(.rrx_text), (6 bytes).
    Removing stm32f4xx_hal_spi.o(.text), (4704 bytes).
    Removing stm32f4xx_hal_sd.o(.rev16_text), (4 bytes).
    Removing stm32f4xx_hal_sd.o(.revsh_text), (4 bytes).
    Removing stm32f4xx_hal_sd.o(.rrx_text), (6 bytes).
    Removing stm32f4xx_hal_sd.o(.text), (6328 bytes).
    Removing stm32f4xx_hal_sdram.o(.rev16_text), (4 bytes).
    Removing stm32f4xx_hal_sdram.o(.revsh_text), (4 bytes).
    Removing stm32f4xx_hal_sdram.o(.rrx_text), (6 bytes).
    Removing stm32f4xx_hal_sdram.o(.text), (924 bytes).
    Removing stm32f4xx_hal_pcd.o(.rev16_text), (4 bytes).
    Removing stm32f4xx_hal_pcd.o(.revsh_text), (4 bytes).
    Removing stm32f4xx_hal_pcd.o(.rrx_text), (6 bytes).
    Removing stm32f4xx_hal_pcd.o(.text), (2510 bytes).
    Removing stm32f4xx_hal_pcd_ex.o(.rev16_text), (4 bytes).
    Removing stm32f4xx_hal_pcd_ex.o(.revsh_text), (4 bytes).
    Removing stm32f4xx_hal_pcd_ex.o(.rrx_text), (6 bytes).
    Removing stm32f4xx_hal_pcd_ex.o(.text), (158 bytes).
    Removing stm32f4xx_ll_fmc.o(.rev16_text), (4 bytes).
    Removing stm32f4xx_ll_fmc.o(.revsh_text), (4 bytes).
    Removing stm32f4xx_ll_fmc.o(.rrx_text), (6 bytes).
    Removing stm32f4xx_ll_fmc.o(.text), (1034 bytes).
    Removing stm32f4xx_ll_fsmc.o(.rev16_text), (4 bytes).
    Removing stm32f4xx_ll_fsmc.o(.revsh_text), (4 bytes).
    Removing stm32f4xx_ll_fsmc.o(.rrx_text), (6 bytes).
    Removing stm32f4xx_ll_sdmmc.o(.rev16_text), (4 bytes).
    Removing stm32f4xx_ll_sdmmc.o(.revsh_text), (4 bytes).
    Removing stm32f4xx_ll_sdmmc.o(.rrx_text), (6 bytes).
    Removing stm32f4xx_ll_sdmmc.o(.text), (200 bytes).
    Removing tm_stm32_delay.o(.rev16_text), (4 bytes).
    Removing tm_stm32_delay.o(.revsh_text), (4 bytes).
    Removing tm_stm32_delay.o(.rrx_text), (6 bytes).
    Removing tm_stm32_disco.o(.rev16_text), (4 bytes).
    Removing tm_stm32_disco.o(.revsh_text), (4 bytes).
    Removing tm_stm32_disco.o(.rrx_text), (6 bytes).
    Removing tm_stm32_disco.o(.text), (152 bytes).
    Removing tm_stm32_disco.o(.data), (1 bytes).
    Removing tm_stm32_fatfs.o(.rev16_text), (4 bytes).
    Removing tm_stm32_fatfs.o(.revsh_text), (4 bytes).
    Removing tm_stm32_fatfs.o(.rrx_text), (6 bytes).
    Removing tm_stm32_fatfs.o(.text), (392 bytes).
    Removing tm_stm32_fonts.o(.rev16_text), (4 bytes).
    Removing tm_stm32_fonts.o(.revsh_text), (4 bytes).
    Removing tm_stm32_fonts.o(.rrx_text), (6 bytes).
    Removing tm_stm32_fonts.o(.text), (28 bytes).
    Removing tm_stm32_fonts.o(.constdata), (1900 bytes).
    Removing tm_stm32_fonts.o(.constdata), (3420 bytes).
    Removing tm_stm32_fonts.o(.constdata), (4940 bytes).
    Removing tm_stm32_fonts.o(.data), (8 bytes).
    Removing tm_stm32_fonts.o(.data), (8 bytes).
    Removing tm_stm32_fonts.o(.data), (8 bytes).
    Removing tm_stm32_gpio.o(.rev16_text), (4 bytes).
    Removing tm_stm32_gpio.o(.revsh_text), (4 bytes).
    Removing tm_stm32_gpio.o(.rrx_text), (6 bytes).
    Removing tm_stm32_i2c.o(.rev16_text), (4 bytes).
    Removing tm_stm32_i2c.o(.revsh_text), (4 bytes).
    Removing tm_stm32_i2c.o(.rrx_text), (6 bytes).
    Removing tm_stm32_i2c.o(.text), (1160 bytes).
    Removing tm_stm32_i2c.o(.data), (180 bytes).
    Removing tm_stm32_mpu6050.o(.rev16_text), (4 bytes).
    Removing tm_stm32_mpu6050.o(.revsh_text), (4 bytes).
    Removing tm_stm32_mpu6050.o(.rrx_text), (6 bytes).
    Removing tm_stm32_mpu6050.o(.text), (976 bytes).
    Removing tm_stm32_rcc.o(.rev16_text), (4 bytes).
    Removing tm_stm32_rcc.o(.revsh_text), (4 bytes).
    Removing tm_stm32_rcc.o(.rrx_text), (6 bytes).
    Removing tm_stm32_rtc.o(.rev16_text), (4 bytes).
    Removing tm_stm32_rtc.o(.revsh_text), (4 bytes).
    Removing tm_stm32_rtc.o(.rrx_text), (6 bytes).
    Removing tm_stm32_spi.o(.rev16_text), (4 bytes).
    Removing tm_stm32_spi.o(.revsh_text), (4 bytes).
    Removing tm_stm32_spi.o(.rrx_text), (6 bytes).
    Removing tm_stm32_spi.o(.text), (1732 bytes).
    Removing tm_stm32_usb.o(.rev16_text), (4 bytes).
    Removing tm_stm32_usb.o(.revsh_text), (4 bytes).
    Removing tm_stm32_usb.o(.rrx_text), (6 bytes).
    Removing tm_stm32_buffer.o(.rev16_text), (4 bytes).
    Removing tm_stm32_buffer.o(.revsh_text), (4 bytes).
    Removing tm_stm32_buffer.o(.rrx_text), (6 bytes).
    Removing tm_stm32_buffer.o(.text), (998 bytes).
    Removing tm_stm32f4_bkpsram.o(.rev16_text), (4 bytes).
    Removing tm_stm32f4_bkpsram.o(.revsh_text), (4 bytes).
    Removing tm_stm32f4_bkpsram.o(.rrx_text), (6 bytes).
    Removing tm_stm32f4_bkpsram.o(.text), (84 bytes).
    Removing tm_stm32_usb_host.o(.rev16_text), (4 bytes).
    Removing tm_stm32_usb_host.o(.revsh_text), (4 bytes).
    Removing tm_stm32_usb_host.o(.rrx_text), (6 bytes).
    Removing tm_stm32_usb_host_msc.o(.rev16_text), (4 bytes).
    Removing tm_stm32_usb_host_msc.o(.revsh_text), (4 bytes).
    Removing tm_stm32_usb_host_msc.o(.rrx_text), (6 bytes).
    Removing main.o(.rev16_text), (4 bytes).
    Removing main.o(.revsh_text), (4 bytes).
    Removing main.o(.rrx_text), (6 bytes).
    Removing main.o(.bss), (60 bytes).
    Removing main.o(.bss), (584 bytes).
    Removing main.o(.data), (4 bytes).
    Removing main.o(.data), (1 bytes).
    Removing main.o(.data), (4 bytes).
    Removing main.o(.data), (4 bytes).
    Removing main.o(.data), (4 bytes).
    Removing main.o(.data), (4 bytes).
    Removing main.o(.data), (4 bytes).
    Removing main.o(.data), (4 bytes).
    Removing main.o(.data), (1 bytes).
    Removing main.o(.data), (1 bytes).
    Removing main.o(.data), (1 bytes).
    Removing main.o(.data), (1 bytes).
    Removing main.o(.data), (2 bytes).
    Removing main.o(.data), (2 bytes).
    Removing main.o(.data), (1 bytes).
    Removing main.o(.data), (1 bytes).
    Removing main.o(.data), (1 bytes).
    Removing main.o(.data), (1 bytes).
    Removing main.o(.data), (4 bytes).
    Removing main.o(.data), (4 bytes).
    Removing stm32fxxx_it.o(.rev16_text), (4 bytes).
    Removing stm32fxxx_it.o(.revsh_text), (4 bytes).
    Removing stm32fxxx_it.o(.rrx_text), (6 bytes).
    Removing system_stm32f4xx.o(.rev16_text), (4 bytes).
    Removing system_stm32f4xx.o(.revsh_text), (4 bytes).
    Removing system_stm32f4xx.o(.rrx_text), (6 bytes).
    Removing stm32f4xx_hal_msp.o(.rev16_text), (4 bytes).
    Removing stm32f4xx_hal_msp.o(.revsh_text), (4 bytes).
    Removing stm32f4xx_hal_msp.o(.rrx_text), (6 bytes).
    Removing config.o(.rev16_text), (4 bytes).
    Removing config.o(.revsh_text), (4 bytes).
    Removing config.o(.rrx_text), (6 bytes).
    Removing funciones.o(.rev16_text), (4 bytes).
    Removing funciones.o(.revsh_text), (4 bytes).
    Removing funciones.o(.rrx_text), (6 bytes).
    Removing funciones.o(.data), (2 bytes).
    Removing funciones.o(.data), (1 bytes).
    Removing usbfunc.o(.rev16_text), (4 bytes).
    Removing usbfunc.o(.revsh_text), (4 bytes).
    Removing usbfunc.o(.rrx_text), (6 bytes).
    Removing ale_gpio_f4.o(.rev16_text), (4 bytes).
    Removing ale_gpio_f4.o(.revsh_text), (4 bytes).
    Removing ale_gpio_f4.o(.rrx_text), (6 bytes).
    Removing ale_gps.o(.text), (452 bytes).
    Removing ale_tim.o(.rev16_text), (4 bytes).
    Removing ale_tim.o(.revsh_text), (4 bytes).
    Removing ale_tim.o(.rrx_text), (6 bytes).
    Removing ale_tim.o(.text), (1028 bytes).
    Removing ale_usart_f4.o(.rev16_text), (4 bytes).
    Removing ale_usart_f4.o(.revsh_text), (4 bytes).
    Removing ale_usart_f4.o(.rrx_text), (6 bytes).
    Removing packet.o(.rev16_text), (4 bytes).
    Removing packet.o(.revsh_text), (4 bytes).
    Removing packet.o(.rrx_text), (6 bytes).
    Removing tc.o(.rev16_text), (4 bytes).
    Removing tc.o(.revsh_text), (4 bytes).
    Removing tc.o(.rrx_text), (6 bytes).
    Removing tc.o(.constdata), (4 bytes).
    Removing usbh_conf.o(.rev16_text), (4 bytes).
    Removing usbh_conf.o(.revsh_text), (4 bytes).
    Removing usbh_conf.o(.rrx_text), (6 bytes).
    Removing usbh_core.o(.rev16_text), (4 bytes).
    Removing usbh_core.o(.revsh_text), (4 bytes).
    Removing usbh_core.o(.rrx_text), (6 bytes).
    Removing usbh_ctlreq.o(.rev16_text), (4 bytes).
    Removing usbh_ctlreq.o(.revsh_text), (4 bytes).
    Removing usbh_ctlreq.o(.rrx_text), (6 bytes).
    Removing usbh_ioreq.o(.rev16_text), (4 bytes).
    Removing usbh_ioreq.o(.revsh_text), (4 bytes).
    Removing usbh_ioreq.o(.rrx_text), (6 bytes).
    Removing usbh_pipes.o(.rev16_text), (4 bytes).
    Removing usbh_pipes.o(.revsh_text), (4 bytes).
    Removing usbh_pipes.o(.rrx_text), (6 bytes).
    Removing usbh_msc.o(.rev16_text), (4 bytes).
    Removing usbh_msc.o(.revsh_text), (4 bytes).
    Removing usbh_msc.o(.rrx_text), (6 bytes).
    Removing usbh_msc_bot.o(.rev16_text), (4 bytes).
    Removing usbh_msc_bot.o(.revsh_text), (4 bytes).
    Removing usbh_msc_bot.o(.rrx_text), (6 bytes).
    Removing usbh_msc_scsi.o(.rev16_text), (4 bytes).
    Removing usbh_msc_scsi.o(.revsh_text), (4 bytes).
    Removing usbh_msc_scsi.o(.rrx_text), (6 bytes).
    Removing diskio.o(.rev16_text), (4 bytes).
    Removing diskio.o(.revsh_text), (4 bytes).
    Removing diskio.o(.rrx_text), (6 bytes).
    Removing fatfs_usb.o(.rev16_text), (4 bytes).
    Removing fatfs_usb.o(.revsh_text), (4 bytes).
    Removing fatfs_usb.o(.rrx_text), (6 bytes).
    Removing ff_gen_drv.o(.text), (228 bytes).
    Removing ff_gen_drv.o(.bss), (60 bytes).
    Removing dfltui.o(.text), (26 bytes).
    Removing dfixui.o(.text), (50 bytes).

260 unused section(s) (total 46723 bytes) removed from the image.

==============================================================================

Image Symbol Table

    Local Symbols

    Symbol Name                              Value     Ov Type        Size  Object(Section)

    ../clib/../cmprslib/zerorunl2.c          0x00000000   Number         0  __dczerorl2.o ABSOLUTE
    ../clib/microlib/division.c              0x00000000   Number         0  uldiv.o ABSOLUTE
    ../clib/microlib/division.c              0x00000000   Number         0  uidiv.o ABSOLUTE
    ../clib/microlib/init/entry.s            0x00000000   Number         0  entry10a.o ABSOLUTE
    ../clib/microlib/init/entry.s            0x00000000   Number         0  entry.o ABSOLUTE
    ../clib/microlib/init/entry.s            0x00000000   Number         0  entry8b.o ABSOLUTE
    ../clib/microlib/init/entry.s            0x00000000   Number         0  entry5.o ABSOLUTE
    ../clib/microlib/init/entry.s            0x00000000   Number         0  entry9b.o ABSOLUTE
    ../clib/microlib/init/entry.s            0x00000000   Number         0  entry8a.o ABSOLUTE
    ../clib/microlib/init/entry.s            0x00000000   Number         0  entry7a.o ABSOLUTE
    ../clib/microlib/init/entry.s            0x00000000   Number         0  entry10b.o ABSOLUTE
    ../clib/microlib/init/entry.s            0x00000000   Number         0  entry11a.o ABSOLUTE
    ../clib/microlib/init/entry.s            0x00000000   Number         0  entry2.o ABSOLUTE
    ../clib/microlib/init/entry.s            0x00000000   Number         0  entry7b.o ABSOLUTE
    ../clib/microlib/init/entry.s            0x00000000   Number         0  entry9a.o ABSOLUTE
    ../clib/microlib/init/entry.s            0x00000000   Number         0  entry11b.o ABSOLUTE
    ../clib/microlib/longlong.c              0x00000000   Number         0  llsshr.o ABSOLUTE
    ../clib/microlib/longlong.c              0x00000000   Number         0  llushr.o ABSOLUTE
    ../clib/microlib/longlong.c              0x00000000   Number         0  llshl.o ABSOLUTE
    ../clib/microlib/malloc/malloc.c         0x00000000   Number         0  mallocra.o ABSOLUTE
    ../clib/microlib/malloc/malloc.c         0x00000000   Number         0  malloca.o ABSOLUTE
    ../clib/microlib/malloc/malloc.c         0x00000000   Number         0  mallocr.o ABSOLUTE
    ../clib/microlib/malloc/malloc.c         0x00000000   Number         0  malloc.o ABSOLUTE
    ../clib/microlib/malloc/mvars.c          0x00000000   Number         0  mvars.o ABSOLUTE
    ../clib/microlib/printf/printf.c         0x00000000   Number         0  printfb.o ABSOLUTE
    ../clib/microlib/printf/printf.c         0x00000000   Number         0  printf7.o ABSOLUTE
    ../clib/microlib/printf/printf.c         0x00000000   Number         0  printfa.o ABSOLUTE
    ../clib/microlib/printf/printf.c         0x00000000   Number         0  printf0.o ABSOLUTE
    ../clib/microlib/printf/printf.c         0x00000000   Number         0  printf1.o ABSOLUTE
    ../clib/microlib/printf/printf.c         0x00000000   Number         0  printf2.o ABSOLUTE
    ../clib/microlib/printf/printf.c         0x00000000   Number         0  printf3.o ABSOLUTE
    ../clib/microlib/printf/printf.c         0x00000000   Number         0  printf4.o ABSOLUTE
    ../clib/microlib/printf/printf.c         0x00000000   Number         0  printf8.o ABSOLUTE
    ../clib/microlib/printf/printf.c         0x00000000   Number         0  printf5.o ABSOLUTE
    ../clib/microlib/printf/printf.c         0x00000000   Number         0  printf6.o ABSOLUTE
    ../clib/microlib/printf/stubs.s          0x00000000   Number         0  stubs.o ABSOLUTE
    ../clib/microlib/stdio/streams.c         0x00000000   Number         0  stdout.o ABSOLUTE
    ../clib/microlib/string/memcpy.c         0x00000000   Number         0  memcpyb.o ABSOLUTE
    ../clib/microlib/string/memcpy.c         0x00000000   Number         0  memcpya.o ABSOLUTE
    ../clib/microlib/string/memset.c         0x00000000   Number         0  memseta.o ABSOLUTE
    ../clib/microlib/string/strcpy.c         0x00000000   Number         0  strcpy.o ABSOLUTE
    ../clib/microlib/string/strlen.c         0x00000000   Number         0  strlen.o ABSOLUTE
    ../clib/microlib/stubs.s                 0x00000000   Number         0  iusefp.o ABSOLUTE
    ../fplib/microlib/f2d.c                  0x00000000   Number         0  f2d.o ABSOLUTE
    ../fplib/microlib/fpadd.c                0x00000000   Number         0  dadd.o ABSOLUTE
    ../fplib/microlib/fpdiv.c                0x00000000   Number         0  ddiv.o ABSOLUTE
    ../fplib/microlib/fpepilogue.c           0x00000000   Number         0  depilogue.o ABSOLUTE
    ../fplib/microlib/fpfix.c                0x00000000   Number         0  dfixul.o ABSOLUTE
    ../fplib/microlib/fpfix.c                0x00000000   Number         0  dfixui.o ABSOLUTE
    ../fplib/microlib/fpflt.c                0x00000000   Number         0  dfltui.o ABSOLUTE
    ../fplib/microlib/fpmul.c                0x00000000   Number         0  dmul.o ABSOLUTE
    Libraries\00-HAL_DRIVERS\STM32F4xx_HAL_Driver\Src\stm32f4xx_hal.c 0x00000000   Number         0  stm32f4xx_hal.o ABSOLUTE
    Libraries\00-HAL_DRIVERS\STM32F4xx_HAL_Driver\Src\stm32f4xx_hal_can.c 0x00000000   Number         0  stm32f4xx_hal_can.o ABSOLUTE
    Libraries\00-HAL_DRIVERS\STM32F4xx_HAL_Driver\Src\stm32f4xx_hal_cortex.c 0x00000000   Number         0  stm32f4xx_hal_cortex.o ABSOLUTE
    Libraries\00-HAL_DRIVERS\STM32F4xx_HAL_Driver\Src\stm32f4xx_hal_crc.c 0x00000000   Number         0  stm32f4xx_hal_crc.o ABSOLUTE
    Libraries\00-HAL_DRIVERS\STM32F4xx_HAL_Driver\Src\stm32f4xx_hal_dma.c 0x00000000   Number         0  stm32f4xx_hal_dma.o ABSOLUTE
    Libraries\00-HAL_DRIVERS\STM32F4xx_HAL_Driver\Src\stm32f4xx_hal_dma2d.c 0x00000000   Number         0  stm32f4xx_hal_dma2d.o ABSOLUTE
    Libraries\00-HAL_DRIVERS\STM32F4xx_HAL_Driver\Src\stm32f4xx_hal_dma_ex.c 0x00000000   Number         0  stm32f4xx_hal_dma_ex.o ABSOLUTE
    Libraries\00-HAL_DRIVERS\STM32F4xx_HAL_Driver\Src\stm32f4xx_hal_gpio.c 0x00000000   Number         0  stm32f4xx_hal_gpio.o ABSOLUTE
    Libraries\00-HAL_DRIVERS\STM32F4xx_HAL_Driver\Src\stm32f4xx_hal_hcd.c 0x00000000   Number         0  stm32f4xx_hal_hcd.o ABSOLUTE
    Libraries\00-HAL_DRIVERS\STM32F4xx_HAL_Driver\Src\stm32f4xx_hal_i2c.c 0x00000000   Number         0  stm32f4xx_hal_i2c.o ABSOLUTE
    Libraries\00-HAL_DRIVERS\STM32F4xx_HAL_Driver\Src\stm32f4xx_hal_i2c_ex.c 0x00000000   Number         0  stm32f4xx_hal_i2c_ex.o ABSOLUTE
    Libraries\00-HAL_DRIVERS\STM32F4xx_HAL_Driver\Src\stm32f4xx_hal_pcd.c 0x00000000   Number         0  stm32f4xx_hal_pcd.o ABSOLUTE
    Libraries\00-HAL_DRIVERS\STM32F4xx_HAL_Driver\Src\stm32f4xx_hal_pcd_ex.c 0x00000000   Number         0  stm32f4xx_hal_pcd_ex.o ABSOLUTE
    Libraries\00-HAL_DRIVERS\STM32F4xx_HAL_Driver\Src\stm32f4xx_hal_pwr.c 0x00000000   Number         0  stm32f4xx_hal_pwr.o ABSOLUTE
    Libraries\00-HAL_DRIVERS\STM32F4xx_HAL_Driver\Src\stm32f4xx_hal_pwr_ex.c 0x00000000   Number         0  stm32f4xx_hal_pwr_ex.o ABSOLUTE
    Libraries\00-HAL_DRIVERS\STM32F4xx_HAL_Driver\Src\stm32f4xx_hal_rcc.c 0x00000000   Number         0  stm32f4xx_hal_rcc.o ABSOLUTE
    Libraries\00-HAL_DRIVERS\STM32F4xx_HAL_Driver\Src\stm32f4xx_hal_rcc_ex.c 0x00000000   Number         0  stm32f4xx_hal_rcc_ex.o ABSOLUTE
    Libraries\00-HAL_DRIVERS\STM32F4xx_HAL_Driver\Src\stm32f4xx_hal_rtc.c 0x00000000   Number         0  stm32f4xx_hal_rtc.o ABSOLUTE
    Libraries\00-HAL_DRIVERS\STM32F4xx_HAL_Driver\Src\stm32f4xx_hal_rtc_ex.c 0x00000000   Number         0  stm32f4xx_hal_rtc_ex.o ABSOLUTE
    Libraries\00-HAL_DRIVERS\STM32F4xx_HAL_Driver\Src\stm32f4xx_hal_sd.c 0x00000000   Number         0  stm32f4xx_hal_sd.o ABSOLUTE
    Libraries\00-HAL_DRIVERS\STM32F4xx_HAL_Driver\Src\stm32f4xx_hal_sdram.c 0x00000000   Number         0  stm32f4xx_hal_sdram.o ABSOLUTE
    Libraries\00-HAL_DRIVERS\STM32F4xx_HAL_Driver\Src\stm32f4xx_hal_spi.c 0x00000000   Number         0  stm32f4xx_hal_spi.o ABSOLUTE
    Libraries\00-HAL_DRIVERS\STM32F4xx_HAL_Driver\Src\stm32f4xx_hal_tim.c 0x00000000   Number         0  stm32f4xx_hal_tim.o ABSOLUTE
    Libraries\00-HAL_DRIVERS\STM32F4xx_HAL_Driver\Src\stm32f4xx_hal_tim_ex.c 0x00000000   Number         0  stm32f4xx_hal_tim_ex.o ABSOLUTE
    Libraries\00-HAL_DRIVERS\STM32F4xx_HAL_Driver\Src\stm32f4xx_hal_uart.c 0x00000000   Number         0  stm32f4xx_hal_uart.o ABSOLUTE
    Libraries\00-HAL_DRIVERS\STM32F4xx_HAL_Driver\Src\stm32f4xx_hal_usart.c 0x00000000   Number         0  stm32f4xx_hal_usart.o ABSOLUTE
    Libraries\00-HAL_DRIVERS\STM32F4xx_HAL_Driver\Src\stm32f4xx_ll_fmc.c 0x00000000   Number         0  stm32f4xx_ll_fmc.o ABSOLUTE
    Libraries\00-HAL_DRIVERS\STM32F4xx_HAL_Driver\Src\stm32f4xx_ll_fsmc.c 0x00000000   Number         0  stm32f4xx_ll_fsmc.o ABSOLUTE
    Libraries\00-HAL_DRIVERS\STM32F4xx_HAL_Driver\Src\stm32f4xx_ll_sdmmc.c 0x00000000   Number         0  stm32f4xx_ll_sdmmc.o ABSOLUTE
    Libraries\00-HAL_DRIVERS\STM32F4xx_HAL_Driver\Src\stm32f4xx_ll_usb.c 0x00000000   Number         0  stm32f4xx_ll_usb.o ABSOLUTE
    Libraries\00-HAL_DRIVERS\cmsis\device\st\stm32f4xx\source\templates\arm\startup_stm32f446xx.s 0x00000000   Number         0  startup_stm32f446xx.o ABSOLUTE
    Libraries\00-STM32_LIBRARIES\USB_Host\Core\Src\usbh_conf.c 0x00000000   Number         0  usbh_conf.o ABSOLUTE
    Libraries\00-STM32_LIBRARIES\USB_Host\Core\Src\usbh_core.c 0x00000000   Number         0  usbh_core.o ABSOLUTE
    Libraries\00-STM32_LIBRARIES\USB_Host\Core\Src\usbh_ctlreq.c 0x00000000   Number         0  usbh_ctlreq.o ABSOLUTE
    Libraries\00-STM32_LIBRARIES\USB_Host\Core\Src\usbh_ioreq.c 0x00000000   Number         0  usbh_ioreq.o ABSOLUTE
    Libraries\00-STM32_LIBRARIES\USB_Host\Core\Src\usbh_pipes.c 0x00000000   Number         0  usbh_pipes.o ABSOLUTE
    Libraries\00-STM32_LIBRARIES\USB_Host\class\MSC\Src\usbh_msc.c 0x00000000   Number         0  usbh_msc.o ABSOLUTE
    Libraries\00-STM32_LIBRARIES\USB_Host\class\MSC\Src\usbh_msc_bot.c 0x00000000   Number         0  usbh_msc_bot.o ABSOLUTE
    Libraries\00-STM32_LIBRARIES\USB_Host\class\MSC\Src\usbh_msc_scsi.c 0x00000000   Number         0  usbh_msc_scsi.o ABSOLUTE
    Libraries\00-STM32_LIBRARIES\fatfs\diskio.c 0x00000000   Number         0  diskio.o ABSOLUTE
    Libraries\00-STM32_LIBRARIES\fatfs\drivers\fatfs_usb.c 0x00000000   Number         0  fatfs_usb.o ABSOLUTE
    Libraries\00-STM32_LIBRARIES\fatfs\ff.c  0x00000000   Number         0  ff.o ABSOLUTE
    Libraries\00-STM32_LIBRARIES\fatfs\ff_gen_drv.c 0x00000000   Number         0  ff_gen_drv.o ABSOLUTE
    Libraries\00-STM32_LIBRARIES\fatfs\option\syscall.c 0x00000000   Number         0  syscall.o ABSOLUTE
    Libraries\00-STM32_LIBRARIES\fatfs\option\unicode.c 0x00000000   Number         0  unicode.o ABSOLUTE
    Libraries\00-STM32_LIBRARIES\tm_stm32_buffer.c 0x00000000   Number         0  tm_stm32_buffer.o ABSOLUTE
    Libraries\00-STM32_LIBRARIES\tm_stm32_delay.c 0x00000000   Number         0  tm_stm32_delay.o ABSOLUTE
    Libraries\00-STM32_LIBRARIES\tm_stm32_disco.c 0x00000000   Number         0  tm_stm32_disco.o ABSOLUTE
    Libraries\00-STM32_LIBRARIES\tm_stm32_fatfs.c 0x00000000   Number         0  tm_stm32_fatfs.o ABSOLUTE
    Libraries\00-STM32_LIBRARIES\tm_stm32_fonts.c 0x00000000   Number         0  tm_stm32_fonts.o ABSOLUTE
    Libraries\00-STM32_LIBRARIES\tm_stm32_gpio.c 0x00000000   Number         0  tm_stm32_gpio.o ABSOLUTE
    Libraries\00-STM32_LIBRARIES\tm_stm32_i2c.c 0x00000000   Number         0  tm_stm32_i2c.o ABSOLUTE
    Libraries\00-STM32_LIBRARIES\tm_stm32_mpu6050.c 0x00000000   Number         0  tm_stm32_mpu6050.o ABSOLUTE
    Libraries\00-STM32_LIBRARIES\tm_stm32_rcc.c 0x00000000   Number         0  tm_stm32_rcc.o ABSOLUTE
    Libraries\00-STM32_LIBRARIES\tm_stm32_rtc.c 0x00000000   Number         0  tm_stm32_rtc.o ABSOLUTE
    Libraries\00-STM32_LIBRARIES\tm_stm32_spi.c 0x00000000   Number         0  tm_stm32_spi.o ABSOLUTE
    Libraries\00-STM32_LIBRARIES\tm_stm32_usb.c 0x00000000   Number         0  tm_stm32_usb.o ABSOLUTE
    Libraries\00-STM32_LIBRARIES\tm_stm32_usb_host.c 0x00000000   Number         0  tm_stm32_usb_host.o ABSOLUTE
    Libraries\00-STM32_LIBRARIES\tm_stm32_usb_host_msc.c 0x00000000   Number         0  tm_stm32_usb_host_msc.o ABSOLUTE
    Libraries\00-STM32_LIBRARIES\tm_stm32f4_bkpsram.c 0x00000000   Number         0  tm_stm32f4_bkpsram.o ABSOLUTE
    Libraries\FSUPV\ALE_Buffer.c             0x00000000   Number         0  ale_buffer.o ABSOLUTE
    Libraries\FSUPV\ALE_GPIO_F4.c            0x00000000   Number         0  ale_gpio_f4.o ABSOLUTE
    Libraries\FSUPV\ALE_GPS.c                0x00000000   Number         0  ale_gps.o ABSOLUTE
    Libraries\FSUPV\ALE_TIM.c                0x00000000   Number         0  ale_tim.o ABSOLUTE
    Libraries\FSUPV\ALE_USART_F4.c           0x00000000   Number         0  ale_usart_f4.o ABSOLUTE
    Libraries\FSUPV\crc.c                    0x00000000   Number         0  crc.o ABSOLUTE
    Libraries\FSUPV\packet.c                 0x00000000   Number         0  packet.o ABSOLUTE
    Libraries\\00-HAL_DRIVERS\\STM32F4xx_HAL_Driver\\Src\\stm32f4xx_hal.c 0x00000000   Number         0  stm32f4xx_hal.o ABSOLUTE
    Libraries\\00-HAL_DRIVERS\\STM32F4xx_HAL_Driver\\Src\\stm32f4xx_hal_can.c 0x00000000   Number         0  stm32f4xx_hal_can.o ABSOLUTE
    Libraries\\00-HAL_DRIVERS\\STM32F4xx_HAL_Driver\\Src\\stm32f4xx_hal_cortex.c 0x00000000   Number         0  stm32f4xx_hal_cortex.o ABSOLUTE
    Libraries\\00-HAL_DRIVERS\\STM32F4xx_HAL_Driver\\Src\\stm32f4xx_hal_crc.c 0x00000000   Number         0  stm32f4xx_hal_crc.o ABSOLUTE
    Libraries\\00-HAL_DRIVERS\\STM32F4xx_HAL_Driver\\Src\\stm32f4xx_hal_dma.c 0x00000000   Number         0  stm32f4xx_hal_dma.o ABSOLUTE
    Libraries\\00-HAL_DRIVERS\\STM32F4xx_HAL_Driver\\Src\\stm32f4xx_hal_dma2d.c 0x00000000   Number         0  stm32f4xx_hal_dma2d.o ABSOLUTE
    Libraries\\00-HAL_DRIVERS\\STM32F4xx_HAL_Driver\\Src\\stm32f4xx_hal_dma_ex.c 0x00000000   Number         0  stm32f4xx_hal_dma_ex.o ABSOLUTE
    Libraries\\00-HAL_DRIVERS\\STM32F4xx_HAL_Driver\\Src\\stm32f4xx_hal_gpio.c 0x00000000   Number         0  stm32f4xx_hal_gpio.o ABSOLUTE
    Libraries\\00-HAL_DRIVERS\\STM32F4xx_HAL_Driver\\Src\\stm32f4xx_hal_hcd.c 0x00000000   Number         0  stm32f4xx_hal_hcd.o ABSOLUTE
    Libraries\\00-HAL_DRIVERS\\STM32F4xx_HAL_Driver\\Src\\stm32f4xx_hal_i2c.c 0x00000000   Number         0  stm32f4xx_hal_i2c.o ABSOLUTE
    Libraries\\00-HAL_DRIVERS\\STM32F4xx_HAL_Driver\\Src\\stm32f4xx_hal_i2c_ex.c 0x00000000   Number         0  stm32f4xx_hal_i2c_ex.o ABSOLUTE
    Libraries\\00-HAL_DRIVERS\\STM32F4xx_HAL_Driver\\Src\\stm32f4xx_hal_pcd.c 0x00000000   Number         0  stm32f4xx_hal_pcd.o ABSOLUTE
    Libraries\\00-HAL_DRIVERS\\STM32F4xx_HAL_Driver\\Src\\stm32f4xx_hal_pcd_ex.c 0x00000000   Number         0  stm32f4xx_hal_pcd_ex.o ABSOLUTE
    Libraries\\00-HAL_DRIVERS\\STM32F4xx_HAL_Driver\\Src\\stm32f4xx_hal_pwr.c 0x00000000   Number         0  stm32f4xx_hal_pwr.o ABSOLUTE
    Libraries\\00-HAL_DRIVERS\\STM32F4xx_HAL_Driver\\Src\\stm32f4xx_hal_pwr_ex.c 0x00000000   Number         0  stm32f4xx_hal_pwr_ex.o ABSOLUTE
    Libraries\\00-HAL_DRIVERS\\STM32F4xx_HAL_Driver\\Src\\stm32f4xx_hal_rcc.c 0x00000000   Number         0  stm32f4xx_hal_rcc.o ABSOLUTE
    Libraries\\00-HAL_DRIVERS\\STM32F4xx_HAL_Driver\\Src\\stm32f4xx_hal_rcc_ex.c 0x00000000   Number         0  stm32f4xx_hal_rcc_ex.o ABSOLUTE
    Libraries\\00-HAL_DRIVERS\\STM32F4xx_HAL_Driver\\Src\\stm32f4xx_hal_rtc.c 0x00000000   Number         0  stm32f4xx_hal_rtc.o ABSOLUTE
    Libraries\\00-HAL_DRIVERS\\STM32F4xx_HAL_Driver\\Src\\stm32f4xx_hal_rtc_ex.c 0x00000000   Number         0  stm32f4xx_hal_rtc_ex.o ABSOLUTE
    Libraries\\00-HAL_DRIVERS\\STM32F4xx_HAL_Driver\\Src\\stm32f4xx_hal_sd.c 0x00000000   Number         0  stm32f4xx_hal_sd.o ABSOLUTE
    Libraries\\00-HAL_DRIVERS\\STM32F4xx_HAL_Driver\\Src\\stm32f4xx_hal_sdram.c 0x00000000   Number         0  stm32f4xx_hal_sdram.o ABSOLUTE
    Libraries\\00-HAL_DRIVERS\\STM32F4xx_HAL_Driver\\Src\\stm32f4xx_hal_spi.c 0x00000000   Number         0  stm32f4xx_hal_spi.o ABSOLUTE
    Libraries\\00-HAL_DRIVERS\\STM32F4xx_HAL_Driver\\Src\\stm32f4xx_hal_tim.c 0x00000000   Number         0  stm32f4xx_hal_tim.o ABSOLUTE
    Libraries\\00-HAL_DRIVERS\\STM32F4xx_HAL_Driver\\Src\\stm32f4xx_hal_tim_ex.c 0x00000000   Number         0  stm32f4xx_hal_tim_ex.o ABSOLUTE
    Libraries\\00-HAL_DRIVERS\\STM32F4xx_HAL_Driver\\Src\\stm32f4xx_hal_uart.c 0x00000000   Number         0  stm32f4xx_hal_uart.o ABSOLUTE
    Libraries\\00-HAL_DRIVERS\\STM32F4xx_HAL_Driver\\Src\\stm32f4xx_hal_usart.c 0x00000000   Number         0  stm32f4xx_hal_usart.o ABSOLUTE
    Libraries\\00-HAL_DRIVERS\\STM32F4xx_HAL_Driver\\Src\\stm32f4xx_ll_fmc.c 0x00000000   Number         0  stm32f4xx_ll_fmc.o ABSOLUTE
    Libraries\\00-HAL_DRIVERS\\STM32F4xx_HAL_Driver\\Src\\stm32f4xx_ll_fsmc.c 0x00000000   Number         0  stm32f4xx_ll_fsmc.o ABSOLUTE
    Libraries\\00-HAL_DRIVERS\\STM32F4xx_HAL_Driver\\Src\\stm32f4xx_ll_sdmmc.c 0x00000000   Number         0  stm32f4xx_ll_sdmmc.o ABSOLUTE
    Libraries\\00-HAL_DRIVERS\\STM32F4xx_HAL_Driver\\Src\\stm32f4xx_ll_usb.c 0x00000000   Number         0  stm32f4xx_ll_usb.o ABSOLUTE
    Libraries\\00-STM32_LIBRARIES\\USB_Host\\Core\\Src\\usbh_conf.c 0x00000000   Number         0  usbh_conf.o ABSOLUTE
    Libraries\\00-STM32_LIBRARIES\\USB_Host\\Core\\Src\\usbh_core.c 0x00000000   Number         0  usbh_core.o ABSOLUTE
    Libraries\\00-STM32_LIBRARIES\\USB_Host\\Core\\Src\\usbh_ctlreq.c 0x00000000   Number         0  usbh_ctlreq.o ABSOLUTE
    Libraries\\00-STM32_LIBRARIES\\USB_Host\\Core\\Src\\usbh_ioreq.c 0x00000000   Number         0  usbh_ioreq.o ABSOLUTE
    Libraries\\00-STM32_LIBRARIES\\USB_Host\\Core\\Src\\usbh_pipes.c 0x00000000   Number         0  usbh_pipes.o ABSOLUTE
    Libraries\\00-STM32_LIBRARIES\\USB_Host\\class\\MSC\\Src\\usbh_msc.c 0x00000000   Number         0  usbh_msc.o ABSOLUTE
    Libraries\\00-STM32_LIBRARIES\\USB_Host\\class\\MSC\\Src\\usbh_msc_bot.c 0x00000000   Number         0  usbh_msc_bot.o ABSOLUTE
    Libraries\\00-STM32_LIBRARIES\\USB_Host\\class\\MSC\\Src\\usbh_msc_scsi.c 0x00000000   Number         0  usbh_msc_scsi.o ABSOLUTE
    Libraries\\00-STM32_LIBRARIES\\fatfs\\diskio.c 0x00000000   Number         0  diskio.o ABSOLUTE
    Libraries\\00-STM32_LIBRARIES\\fatfs\\drivers\\fatfs_usb.c 0x00000000   Number         0  fatfs_usb.o ABSOLUTE
    Libraries\\00-STM32_LIBRARIES\\tm_stm32_buffer.c 0x00000000   Number         0  tm_stm32_buffer.o ABSOLUTE
    Libraries\\00-STM32_LIBRARIES\\tm_stm32_delay.c 0x00000000   Number         0  tm_stm32_delay.o ABSOLUTE
    Libraries\\00-STM32_LIBRARIES\\tm_stm32_disco.c 0x00000000   Number         0  tm_stm32_disco.o ABSOLUTE
    Libraries\\00-STM32_LIBRARIES\\tm_stm32_fatfs.c 0x00000000   Number         0  tm_stm32_fatfs.o ABSOLUTE
    Libraries\\00-STM32_LIBRARIES\\tm_stm32_fonts.c 0x00000000   Number         0  tm_stm32_fonts.o ABSOLUTE
    Libraries\\00-STM32_LIBRARIES\\tm_stm32_gpio.c 0x00000000   Number         0  tm_stm32_gpio.o ABSOLUTE
    Libraries\\00-STM32_LIBRARIES\\tm_stm32_i2c.c 0x00000000   Number         0  tm_stm32_i2c.o ABSOLUTE
    Libraries\\00-STM32_LIBRARIES\\tm_stm32_mpu6050.c 0x00000000   Number         0  tm_stm32_mpu6050.o ABSOLUTE
    Libraries\\00-STM32_LIBRARIES\\tm_stm32_rcc.c 0x00000000   Number         0  tm_stm32_rcc.o ABSOLUTE
    Libraries\\00-STM32_LIBRARIES\\tm_stm32_rtc.c 0x00000000   Number         0  tm_stm32_rtc.o ABSOLUTE
    Libraries\\00-STM32_LIBRARIES\\tm_stm32_spi.c 0x00000000   Number         0  tm_stm32_spi.o ABSOLUTE
    Libraries\\00-STM32_LIBRARIES\\tm_stm32_usb.c 0x00000000   Number         0  tm_stm32_usb.o ABSOLUTE
    Libraries\\00-STM32_LIBRARIES\\tm_stm32_usb_host.c 0x00000000   Number         0  tm_stm32_usb_host.o ABSOLUTE
    Libraries\\00-STM32_LIBRARIES\\tm_stm32_usb_host_msc.c 0x00000000   Number         0  tm_stm32_usb_host_msc.o ABSOLUTE
    Libraries\\00-STM32_LIBRARIES\\tm_stm32f4_bkpsram.c 0x00000000   Number         0  tm_stm32f4_bkpsram.o ABSOLUTE
    Libraries\\FSUPV\\ALE_GPIO_F4.c          0x00000000   Number         0  ale_gpio_f4.o ABSOLUTE
    Libraries\\FSUPV\\ALE_TIM.c              0x00000000   Number         0  ale_tim.o ABSOLUTE
    Libraries\\FSUPV\\ALE_USART_F4.c         0x00000000   Number         0  ale_usart_f4.o ABSOLUTE
    Libraries\\FSUPV\\packet.c               0x00000000   Number         0  packet.o ABSOLUTE
    User\Config.c                            0x00000000   Number         0  config.o ABSOLUTE
    User\Funciones.c                         0x00000000   Number         0  funciones.o ABSOLUTE
    User\TC.c                                0x00000000   Number         0  tc.o ABSOLUTE
    User\USBfunc.c                           0x00000000   Number         0  usbfunc.o ABSOLUTE
    User\\Config.c                           0x00000000   Number         0  config.o ABSOLUTE
    User\\Funciones.c                        0x00000000   Number         0  funciones.o ABSOLUTE
    User\\TC.c                               0x00000000   Number         0  tc.o ABSOLUTE
    User\\USBfunc.c                          0x00000000   Number         0  usbfunc.o ABSOLUTE
    User\\main.c                             0x00000000   Number         0  main.o ABSOLUTE
    User\\stm32f4xx_hal_msp.c                0x00000000   Number         0  stm32f4xx_hal_msp.o ABSOLUTE
    User\\stm32fxxx_it.c                     0x00000000   Number         0  stm32fxxx_it.o ABSOLUTE
    User\\system_stm32f4xx.c                 0x00000000   Number         0  system_stm32f4xx.o ABSOLUTE
    User\main.c                              0x00000000   Number         0  main.o ABSOLUTE
    User\stm32f4xx_hal_msp.c                 0x00000000   Number         0  stm32f4xx_hal_msp.o ABSOLUTE
    User\stm32fxxx_it.c                      0x00000000   Number         0  stm32fxxx_it.o ABSOLUTE
    User\system_stm32f4xx.c                  0x00000000   Number         0  system_stm32f4xx.o ABSOLUTE
    cdrcmple.s                               0x00000000   Number         0  cdrcmple.o ABSOLUTE
    dc.s                                     0x00000000   Number         0  dc.o ABSOLUTE
    handlers.s                               0x00000000   Number         0  handlers.o ABSOLUTE
    init.s                                   0x00000000   Number         0  init.o ABSOLUTE
    RESET                                    0x08000000   Section      452  startup_stm32f446xx.o(RESET)
    .ARM.Collect$$$$00000000                 0x080001c4   Section        0  entry.o(.ARM.Collect$$$$00000000)
    .ARM.Collect$$$$00000001                 0x080001c4   Section        4  entry2.o(.ARM.Collect$$$$00000001)
    .ARM.Collect$$$$00000004                 0x080001c8   Section        4  entry5.o(.ARM.Collect$$$$00000004)
    .ARM.Collect$$$$00000008                 0x080001cc   Section        0  entry7b.o(.ARM.Collect$$$$00000008)
    .ARM.Collect$$$$0000000A                 0x080001cc   Section        0  entry8b.o(.ARM.Collect$$$$0000000A)
    .ARM.Collect$$$$0000000B                 0x080001cc   Section        8  entry9a.o(.ARM.Collect$$$$0000000B)
    .ARM.Collect$$$$0000000D                 0x080001d4   Section        0  entry10a.o(.ARM.Collect$$$$0000000D)
    .ARM.Collect$$$$0000000F                 0x080001d4   Section        0  entry11a.o(.ARM.Collect$$$$0000000F)
    .ARM.Collect$$$$00002712                 0x080001d4   Section        4  entry2.o(.ARM.Collect$$$$00002712)
    __lit__00000000                          0x080001d4   Data           4  entry2.o(.ARM.Collect$$$$00002712)
    .text                                    0x080001d8   Section       36  startup_stm32f446xx.o(.text)
    $v0                                      0x080001d8   Number         0  startup_stm32f446xx.o(.text)
    .text                                    0x080001fc   Section        0  stm32f4xx_hal.o(.text)
    .text                                    0x0800036c   Section        0  stm32f4xx_hal_can.o(.text)
    CAN_Receive_IT                           0x08000c27   Thumb Code   342  stm32f4xx_hal_can.o(.text)
    .text                                    0x08000f84   Section        0  stm32f4xx_hal_cortex.o(.text)
    .text                                    0x080011bc   Section        0  stm32f4xx_hal_dma.o(.text)
    .text                                    0x08001778   Section        0  stm32f4xx_hal_gpio.o(.text)
    .text                                    0x08001b2c   Section        0  stm32f4xx_hal_hcd.o(.text)
    .text                                    0x080024c0   Section        0  stm32f4xx_hal_pwr.o(.text)
    .text                                    0x080026a0   Section        0  stm32f4xx_hal_pwr_ex.o(.text)
    .text                                    0x080029e8   Section        0  stm32f4xx_hal_rcc.o(.text)
    .text                                    0x08003324   Section        0  stm32f4xx_hal_rcc_ex.o(.text)
    .text                                    0x08004200   Section        0  stm32f4xx_hal_rtc.o(.text)
    .text                                    0x08004c0c   Section        0  stm32f4xx_hal_rtc_ex.o(.text)
    .text                                    0x080057ac   Section        0  stm32f4xx_hal_tim.o(.text)
    TIM_DMAPeriodElapsedCplt                 0x0800596f   Thumb Code    16  stm32f4xx_hal_tim.o(.text)
    TIM_DMATriggerCplt                       0x080071ad   Thumb Code    16  stm32f4xx_hal_tim.o(.text)
    TIM_SlaveTimer_SetConfig                 0x080077ad   Thumb Code   216  stm32f4xx_hal_tim.o(.text)
    TIM_OC1_SetConfig                        0x08007971   Thumb Code    96  stm32f4xx_hal_tim.o(.text)
    .text                                    0x080079d0   Section        0  stm32f4xx_hal_tim_ex.o(.text)
    TIM_CCxNChannelCmd                       0x080084af   Thumb Code    26  stm32f4xx_hal_tim_ex.o(.text)
    .text                                    0x080084c8   Section        0  stm32f4xx_hal_usart.o(.text)
    USART_WaitOnFlagUntilTimeout             0x0800868b   Thumb Code   166  stm32f4xx_hal_usart.o(.text)
    USART_DMAError                           0x08008ae1   Thumb Code    30  stm32f4xx_hal_usart.o(.text)
    USART_DMATxHalfCplt                      0x08008b01   Thumb Code    10  stm32f4xx_hal_usart.o(.text)
    USART_DMATransmitCplt                    0x08008b0d   Thumb Code    66  stm32f4xx_hal_usart.o(.text)
    USART_DMARxHalfCplt                      0x08008bcd   Thumb Code    10  stm32f4xx_hal_usart.o(.text)
    USART_DMAReceiveCplt                     0x08008bdb   Thumb Code    90  stm32f4xx_hal_usart.o(.text)
    USART_TransmitReceive_IT                 0x08008dfd   Thumb Code   236  stm32f4xx_hal_usart.o(.text)
    .text                                    0x08009120   Section        0  stm32f4xx_ll_usb.o(.text)
    .text                                    0x0800a3e4   Section        0  tm_stm32_delay.o(.text)
    .text                                    0x0800a5b4   Section        0  tm_stm32_gpio.o(.text)
    .text                                    0x0800a8b4   Section        0  tm_stm32_rcc.o(.text)
    .text                                    0x0800a940   Section        0  tm_stm32_rtc.o(.text)
    .text                                    0x0800b2c4   Section        0  tm_stm32_usb.o(.text)
    .text                                    0x0800b374   Section        0  tm_stm32_usb_host.o(.text)
    USBH_ProcessCallback                     0x0800b375   Thumb Code    44  tm_stm32_usb_host.o(.text)
    .text                                    0x0800b470   Section        0  tm_stm32_usb_host_msc.o(.text)
    .text                                    0x0800b4c0   Section        0  main.o(.text)
    .text                                    0x0800b5ec   Section        0  stm32fxxx_it.o(.text)
    .text                                    0x0800b864   Section        0  system_stm32f4xx.o(.text)
    .text                                    0x0800b93c   Section        0  stm32f4xx_hal_msp.o(.text)
    .text                                    0x0800bc58   Section        0  config.o(.text)
    .text                                    0x0800c1b0   Section        0  funciones.o(.text)
    .text                                    0x0800ded8   Section        0  usbfunc.o(.text)
    .text                                    0x0800e0b0   Section        0  ale_buffer.o(.text)
    .text                                    0x0800e3d8   Section        0  ale_gpio_f4.o(.text)
    .text                                    0x0800e550   Section        0  ale_usart_f4.o(.text)
    .text                                    0x0800e8ec   Section        0  crc.o(.text)
    .text                                    0x0800e920   Section        0  packet.o(.text)
    .text                                    0x0800ea94   Section        0  tc.o(.text)
    .text                                    0x0800eed4   Section        0  usbh_conf.o(.text)
    .text                                    0x0800f090   Section        0  usbh_core.o(.text)
    DeInitStateMachine                       0x0800f885   Thumb Code    64  usbh_core.o(.text)
    .text                                    0x0800fa38   Section        0  usbh_ctlreq.o(.text)
    .text                                    0x0800fecc   Section        0  usbh_ioreq.o(.text)
    .text                                    0x08010032   Section        0  usbh_pipes.o(.text)
    .text                                    0x080100a8   Section        0  usbh_msc.o(.text)
    USBH_MSC_InterfaceInit                   0x080100a9   Thumb Code   340  usbh_msc.o(.text)
    USBH_MSC_InterfaceDeInit                 0x080101fd   Thumb Code    74  usbh_msc.o(.text)
    USBH_MSC_ClassRequest                    0x08010247   Thumb Code   136  usbh_msc.o(.text)
    USBH_MSC_Process                         0x080102cf   Thumb Code  1342  usbh_msc.o(.text)
    USBH_MSC_SOFProcess                      0x0801080d   Thumb Code     4  usbh_msc.o(.text)
    USBH_MSC_RdWrProcess                     0x08010811   Thumb Code   244  usbh_msc.o(.text)
    .text                                    0x08010b10   Section        0  usbh_msc_bot.o(.text)
    .text                                    0x08010d6c   Section        0  usbh_msc_scsi.o(.text)
    .text                                    0x080110c0   Section        0  diskio.o(.text)
    .text                                    0x08011218   Section        0  ff.o(.text)
    ld_qword                                 0x08011219   Thumb Code    84  ff.o(.text)
    st_qword                                 0x0801126d   Thumb Code    72  ff.o(.text)
    sync_window                              0x080112b5   Thumb Code    84  ff.o(.text)
    sync_fs                                  0x08011309   Thumb Code   138  ff.o(.text)
    get_fat                                  0x08011393   Thumb Code   352  ff.o(.text)
    put_fat                                  0x080114f3   Thumb Code   278  ff.o(.text)
    remove_chain                             0x08011609   Thumb Code   374  ff.o(.text)
    create_chain                             0x0801177f   Thumb Code   336  ff.o(.text)
    dir_sdi                                  0x080118cf   Thumb Code   168  ff.o(.text)
    dir_next                                 0x08011977   Thumb Code   314  ff.o(.text)
    load_xdir                                0x08011ab1   Thumb Code   312  ff.o(.text)
    store_xdir                               0x08011be9   Thumb Code   166  ff.o(.text)
    dir_read                                 0x08011c8f   Thumb Code   366  ff.o(.text)
    dir_find                                 0x08011dfd   Thumb Code   624  ff.o(.text)
    dir_register                             0x0801206d   Thumb Code  1096  ff.o(.text)
    get_fileinfo                             0x080124b5   Thumb Code   444  ff.o(.text)
    pattern_matching                         0x08012671   Thumb Code   216  ff.o(.text)
    follow_path                              0x08012749   Thumb Code  1046  ff.o(.text)
    get_ldnumber                             0x08012b5f   Thumb Code   162  ff.o(.text)
    find_volume                              0x08012c01   Thumb Code  1442  ff.o(.text)
    validate                                 0x080131a3   Thumb Code    54  ff.o(.text)
    st_dword                                 0x0801626d   Thumb Code    16  ff.o(.text)
    chk_lock                                 0x0801627d   Thumb Code   104  ff.o(.text)
    inc_lock                                 0x080162e5   Thumb Code   136  ff.o(.text)
    move_window                              0x0801636d   Thumb Code    54  ff.o(.text)
    clust2sect                               0x080163a3   Thumb Code    24  ff.o(.text)
    find_bitmap                              0x080163bb   Thumb Code   144  ff.o(.text)
    change_bitmap                            0x0801644b   Thumb Code   124  ff.o(.text)
    fill_last_frag                           0x080164c7   Thumb Code    56  ff.o(.text)
    clmt_clust                               0x080164ff   Thumb Code    54  ff.o(.text)
    dir_alloc                                0x08016535   Thumb Code   102  ff.o(.text)
    ld_clust                                 0x0801659b   Thumb Code    32  ff.o(.text)
    st_clust                                 0x080165bb   Thumb Code    28  ff.o(.text)
    dir_remove                               0x080165d7   Thumb Code   104  ff.o(.text)
    check_fs                                 0x0801663f   Thumb Code   194  ff.o(.text)
    putc_bfd                                 0x08016701   Thumb Code    58  ff.o(.text)
    .text                                    0x08016748   Section        0  syscall.o(.text)
    .text                                    0x08016750   Section        0  unicode.o(.text)
    .text                                    0x080167e4   Section        0  fatfs_usb.o(.text)
    .text                                    0x08016a58   Section        0  uldiv.o(.text)
    .text                                    0x08016aba   Section        0  llshl.o(.text)
    .text                                    0x08016ad8   Section        0  llushr.o(.text)
    .text                                    0x08016af8   Section        0  memcpya.o(.text)
    .text                                    0x08016b1c   Section        0  memseta.o(.text)
    .text                                    0x08016b40   Section        0  dmul.o(.text)
    .text                                    0x08016c24   Section        0  f2d.o(.text)
    .text                                    0x08016c4a   Section        0  uidiv.o(.text)
    .text                                    0x08016c76   Section        0  iusefp.o(.text)
    .text                                    0x08016c76   Section        0  depilogue.o(.text)
    .text                                    0x08016d30   Section        0  dadd.o(.text)
    .text                                    0x08016e7e   Section        0  ddiv.o(.text)
    .text                                    0x08016f5c   Section        0  dfixul.o(.text)
    .text                                    0x08016f8c   Section       48  cdrcmple.o(.text)
    .text                                    0x08016fbc   Section       36  init.o(.text)
    .text                                    0x08016fe0   Section        0  llsshr.o(.text)
    .text                                    0x08017004   Section        0  __dczerorl2.o(.text)
    i.__0printf                              0x0801705c   Section        0  printfa.o(i.__0printf)
    i.__0sprintf                             0x0801707c   Section        0  printfa.o(i.__0sprintf)
    i.__scatterload_copy                     0x080170a4   Section       14  handlers.o(i.__scatterload_copy)
    i.__scatterload_null                     0x080170b2   Section        2  handlers.o(i.__scatterload_null)
    i.__scatterload_zeroinit                 0x080170b4   Section       14  handlers.o(i.__scatterload_zeroinit)
    i._fp_digits                             0x080170c4   Section        0  printfa.o(i._fp_digits)
    _fp_digits                               0x080170c5   Thumb Code   366  printfa.o(i._fp_digits)
    i._printf_core                           0x08017248   Section        0  printfa.o(i._printf_core)
    _printf_core                             0x08017249   Thumb Code  1744  printfa.o(i._printf_core)
    i._printf_post_padding                   0x08017924   Section        0  printfa.o(i._printf_post_padding)
    _printf_post_padding                     0x08017925   Thumb Code    36  printfa.o(i._printf_post_padding)
    i._printf_pre_padding                    0x08017948   Section        0  printfa.o(i._printf_pre_padding)
    _printf_pre_padding                      0x08017949   Thumb Code    46  printfa.o(i._printf_pre_padding)
    i._sputc                                 0x08017976   Section        0  printfa.o(i._sputc)
    _sputc                                   0x08017977   Thumb Code    10  printfa.o(i._sputc)
    i.free                                   0x08017980   Section        0  malloc.o(i.free)
    i.malloc                                 0x080179d0   Section        0  malloc.o(i.malloc)
    .constdata                               0x08017a3c   Section        8  stm32f4xx_hal_dma.o(.constdata)
    flagBitshiftOffset                       0x08017a3c   Data           8  stm32f4xx_hal_dma.o(.constdata)
    .constdata                               0x08017a44   Section       16  stm32f4xx_hal_rcc.o(.constdata)
    .constdata                               0x08017a54   Section       16  system_stm32f4xx.o(.constdata)
    .constdata                               0x08017a64   Section      512  crc.o(.constdata)
    .constdata                               0x08017c64   Section       24  tc.o(.constdata)
    .constdata                               0x08017c7c   Section      224  ff.o(.constdata)
    ExCvt                                    0x08017c7c   Data         128  ff.o(.constdata)
    LfnOfs                                   0x08017cfc   Data          13  ff.o(.constdata)
    volid                                    0x08017d0c   Data          36  ff.o(.constdata)
    badchr                                   0x08017d30   Data          16  ff.o(.constdata)
    cst                                      0x08017d40   Data          14  ff.o(.constdata)
    cst32                                    0x08017d4e   Data          14  ff.o(.constdata)
    .constdata                               0x08017d5c   Section     2232  unicode.o(.constdata)
    Tbl                                      0x08017d5c   Data         256  unicode.o(.constdata)
    lower                                    0x08017e5c   Data         988  unicode.o(.constdata)
    upper                                    0x08018238   Data         988  unicode.o(.constdata)
    .conststring                             0x08018614   Section        4  usbh_msc.o(.conststring)
    .conststring                             0x08018618   Section       70  ff.o(.conststring)
    .data                                    0x20000000   Section        4  stm32f4xx_hal.o(.data)
    uwTick                                   0x20000000   Data           4  stm32f4xx_hal.o(.data)
    .data                                    0x20000004   Section        4  stm32f4xx_ll_usb.o(.data)
    debug                                    0x20000004   Data           4  stm32f4xx_ll_usb.o(.data)
    .data                                    0x20000008   Section        8  tm_stm32_delay.o(.data)
    .data                                    0x20000010   Section       28  tm_stm32_rtc.o(.data)
    RTC_DateStruct                           0x20000010   Data           4  tm_stm32_rtc.o(.data)
    RTC_Months                               0x20000014   Data          24  tm_stm32_rtc.o(.data)
    .data                                    0x2000002c   Section       16  tm_stm32_usb_host.o(.data)
    USBH_DeviceReady                         0x2000002c   Data           2  tm_stm32_usb_host.o(.data)
    hUSBHosts                                0x20000030   Data          12  tm_stm32_usb_host.o(.data)
    .data                                    0x2000003c   Section        2  main.o(.data)
    .data                                    0x2000003e   Section        2  main.o(.data)
    .data                                    0x20000040   Section        2  main.o(.data)
    .data                                    0x20000042   Section        2  main.o(.data)
    .data                                    0x20000044   Section        2  main.o(.data)
    .data                                    0x20000046   Section        2  main.o(.data)
    .data                                    0x20000048   Section        2  main.o(.data)
    .data                                    0x2000004a   Section        2  main.o(.data)
    .data                                    0x2000004c   Section        2  main.o(.data)
    .data                                    0x2000004e   Section        2  main.o(.data)
    .data                                    0x20000050   Section        2  main.o(.data)
    .data                                    0x20000052   Section        1  main.o(.data)
    .data                                    0x20000054   Section        2  main.o(.data)
    .data                                    0x20000056   Section        2  main.o(.data)
    .data                                    0x20000058   Section        2  main.o(.data)
    .data                                    0x2000005a   Section        2  main.o(.data)
    .data                                    0x2000005c   Section        4  main.o(.data)
    .data                                    0x20000060   Section        2  main.o(.data)
    .data                                    0x20000062   Section        2  main.o(.data)
    .data                                    0x20000064   Section        2  main.o(.data)
    .data                                    0x20000066   Section        2  main.o(.data)
    .data                                    0x20000068   Section        2  main.o(.data)
    .data                                    0x2000006a   Section        2  main.o(.data)
    .data                                    0x2000006c   Section        2  main.o(.data)
    .data                                    0x2000006e   Section        2  main.o(.data)
    .data                                    0x20000070   Section        2  main.o(.data)
    .data                                    0x20000072   Section        2  main.o(.data)
    .data                                    0x20000074   Section        2  main.o(.data)
    .data                                    0x20000076   Section        2  main.o(.data)
    .data                                    0x20000078   Section        2  main.o(.data)
    .data                                    0x2000007a   Section        2  main.o(.data)
    .data                                    0x2000007c   Section        2  main.o(.data)
    .data                                    0x2000007e   Section        2  main.o(.data)
    .data                                    0x20000080   Section        2  main.o(.data)
    .data                                    0x20000082   Section        2  main.o(.data)
    .data                                    0x20000084   Section        2  main.o(.data)
    .data                                    0x20000086   Section        2  main.o(.data)
    .data                                    0x20000088   Section        2  main.o(.data)
    .data                                    0x2000008a   Section        2  main.o(.data)
    .data                                    0x2000008c   Section        2  main.o(.data)
    .data                                    0x2000008e   Section        2  main.o(.data)
    .data                                    0x20000090   Section        2  main.o(.data)
    .data                                    0x20000092   Section        2  main.o(.data)
    .data                                    0x20000094   Section        2  main.o(.data)
    .data                                    0x20000096   Section        2  main.o(.data)
    .data                                    0x20000098   Section        2  main.o(.data)
    .data                                    0x2000009a   Section        2  main.o(.data)
    .data                                    0x2000009c   Section        2  main.o(.data)
    .data                                    0x2000009e   Section        2  main.o(.data)
    .data                                    0x200000a0   Section        2  main.o(.data)
    .data                                    0x200000a2   Section        2  main.o(.data)
    .data                                    0x200000a4   Section        2  main.o(.data)
    .data                                    0x200000a6   Section        2  main.o(.data)
    .data                                    0x200000a8   Section        2  main.o(.data)
    .data                                    0x200000aa   Section        2  main.o(.data)
    .data                                    0x200000ac   Section        2  main.o(.data)
    .data                                    0x200000ae   Section        2  main.o(.data)
    .data                                    0x200000b0   Section        2  main.o(.data)
    .data                                    0x200000b2   Section        2  main.o(.data)
    .data                                    0x200000b4   Section        2  main.o(.data)
    .data                                    0x200000b6   Section        2  main.o(.data)
    .data                                    0x200000b8   Section        2  main.o(.data)
    .data                                    0x200000ba   Section        2  main.o(.data)
    .data                                    0x200000bc   Section        2  main.o(.data)
    .data                                    0x200000be   Section        2  main.o(.data)
    .data                                    0x200000c0   Section        1  main.o(.data)
    .data                                    0x200000c2   Section        2  main.o(.data)
    .data                                    0x200000c4   Section        7  main.o(.data)
    .data                                    0x200000cb   Section       16  main.o(.data)
    .data                                    0x200000db   Section        1  main.o(.data)
    .data                                    0x200000dc   Section       12  main.o(.data)
    .data                                    0x200000e8   Section        4  main.o(.data)
    .data                                    0x200000ec   Section        2  main.o(.data)
    .data                                    0x200000f0   Section        4  main.o(.data)
    .data                                    0x200000f4   Section        4  main.o(.data)
    .data                                    0x200000f8   Section        4  main.o(.data)
    .data                                    0x200000fc   Section        4  main.o(.data)
    .data                                    0x20000100   Section        1  main.o(.data)
    .data                                    0x20000102   Section        2  main.o(.data)
    .data                                    0x20000104   Section        2  main.o(.data)
    .data                                    0x20000106   Section        2  main.o(.data)
    .data                                    0x20000108   Section        2  main.o(.data)
    .data                                    0x2000010a   Section        2  main.o(.data)
    .data                                    0x2000010c   Section        2  main.o(.data)
    .data                                    0x2000010e   Section        1  main.o(.data)
    .data                                    0x2000010f   Section        1  main.o(.data)
    .data                                    0x20000110   Section        2  main.o(.data)
    .data                                    0x20000112   Section        2  main.o(.data)
    .data                                    0x20000114   Section        2  main.o(.data)
    .data                                    0x20000116   Section        1  main.o(.data)
    .data                                    0x20000117   Section        1  main.o(.data)
    .data                                    0x20000118   Section        1  main.o(.data)
    .data                                    0x2000011a   Section        2  main.o(.data)
    .data                                    0x2000011c   Section        2  main.o(.data)
    .data                                    0x2000011e   Section        2  main.o(.data)
    .data                                    0x20000120   Section        2  main.o(.data)
    .data                                    0x20000122   Section        2  main.o(.data)
    .data                                    0x20000124   Section        2  main.o(.data)
    .data                                    0x20000126   Section        8  main.o(.data)
    .data                                    0x2000012e   Section        6  main.o(.data)
    .data                                    0x20000134   Section        6  main.o(.data)
    .data                                    0x2000013c   Section       32  stm32fxxx_it.o(.data)
    capture_number                           0x20000144   Data           4  stm32fxxx_it.o(.data)
    period_counter                           0x20000148   Data           4  stm32fxxx_it.o(.data)
    FirstValue                               0x2000014c   Data           4  stm32fxxx_it.o(.data)
    SecondValue                              0x20000150   Data           4  stm32fxxx_it.o(.data)
    Frequency                                0x20000154   Data           4  stm32fxxx_it.o(.data)
    lastTick                                 0x20000158   Data           4  stm32fxxx_it.o(.data)
    .data                                    0x2000015c   Section        4  system_stm32f4xx.o(.data)
    .data                                    0x20000160   Section        8  config.o(.data)
    state                                    0x20000160   Data           4  config.o(.data)
    data                                     0x20000164   Data           4  config.o(.data)
    .data                                    0x20000168   Section       40  funciones.o(.data)
    FS_Mounted                               0x2000016b   Data           1  funciones.o(.data)
    datax                                    0x2000016c   Data           1  funciones.o(.data)
    ident_cnt                                0x2000016d   Data           1  funciones.o(.data)
    comacount                                0x2000016e   Data           1  funciones.o(.data)
    GNGLL_cnt                                0x20000178   Data           2  funciones.o(.data)
    ident                                    0x20000180   Data           6  funciones.o(.data)
    .data                                    0x20000190   Section       20  tc.o(.data)
    .data                                    0x200001a4   Section        1  tc.o(.data)
    .data                                    0x200001a8   Section       32  usbh_msc.o(.data)
    .data                                    0x200001c8   Section      180  diskio.o(.data)
    .data                                    0x2000027c   Section        4  ff.o(.data)
    CurrVol                                  0x2000027c   Data           1  ff.o(.data)
    Fsid                                     0x2000027e   Data           2  ff.o(.data)
    .data                                    0x20000280   Section        4  stdout.o(.data)
    .data                                    0x20000284   Section        4  mvars.o(.data)
    .data                                    0x20000288   Section        4  mvars.o(.data)
    .bss                                     0x2000028c   Section       24  tm_stm32_delay.o(.bss)
    CustomTimers                             0x2000028c   Data          24  tm_stm32_delay.o(.bss)
    .bss                                     0x200002a4   Section       26  tm_stm32_gpio.o(.bss)
    GPIO_UsedPins                            0x200002a4   Data          26  tm_stm32_gpio.o(.bss)
    .bss                                     0x200002c0   Section       52  tm_stm32_rtc.o(.bss)
    hRTC                                     0x200002c0   Data          32  tm_stm32_rtc.o(.bss)
    RTC_TimeStruct                           0x200002e0   Data          20  tm_stm32_rtc.o(.bss)
    .bss                                     0x200002f4   Section      928  tm_stm32_usb_host.o(.bss)
    .bss                                     0x20000694   Section     4852  main.o(.bss)
    .bss                                     0x20001988   Section       40  main.o(.bss)
    .bss                                     0x200019b0   Section       68  main.o(.bss)
    .bss                                     0x200019f4   Section       68  main.o(.bss)
    .bss                                     0x20001a38   Section       60  main.o(.bss)
    .bss                                     0x20001a74   Section       60  main.o(.bss)
    .bss                                     0x20001ab0   Section      456  main.o(.bss)
    .bss                                     0x20001c78   Section      584  main.o(.bss)
    .bss                                     0x20001ec0   Section      600  main.o(.bss)
    .bss                                     0x20002118   Section       16  main.o(.bss)
    .bss                                     0x20002128   Section       28  main.o(.bss)
    .bss                                     0x20002144   Section     1088  packet.o(.bss)
    handler_states                           0x20002144   Data        1088  packet.o(.bss)
    .bss                                     0x20002584   Section      664  usbh_conf.o(.bss)
    .bss                                     0x2000281c   Section      196  ff.o(.bss)
    FatFs                                    0x2000281c   Data          36  ff.o(.bss)
    Files                                    0x20002840   Data         160  ff.o(.bss)
    HEAP                                     0x200028e0   Section    28672  startup_stm32f446xx.o(HEAP)
    STACK                                    0x200098e0   Section    86016  startup_stm32f446xx.o(STACK)

    Global Symbols

    Symbol Name                              Value     Ov Type        Size  Object(Section)

    BuildAttributes$$THM_ISAv4$E$P$D$K$B$S$7EM$VFPi3$EXTD16$VFPS$VFMA$PE$A:L22UL41UL21$X:L11$S22US41US21$IEEE1$IW$USESV6$~STKCKD$USESV7$~SHL$OTIME$ROPI$EBA8$MICROLIB$REQ8$PRES8$EABIv2 0x00000000   Number         0  anon$$obj.o ABSOLUTE
    __ARM_use_no_argv                        0x00000000   Number         0  main.o ABSOLUTE
    _printf_a                                0x00000000   Number         0  stubs.o ABSOLUTE
    _printf_c                                0x00000000   Number         0  stubs.o ABSOLUTE
    _printf_charcount                        0x00000000   Number         0  stubs.o ABSOLUTE
    _printf_d                                0x00000000   Number         0  stubs.o ABSOLUTE
    _printf_e                                0x00000000   Number         0  stubs.o ABSOLUTE
    _printf_f                                0x00000000   Number         0  stubs.o ABSOLUTE
    _printf_flags                            0x00000000   Number         0  stubs.o ABSOLUTE
    _printf_fp_dec                           0x00000000   Number         0  stubs.o ABSOLUTE
    _printf_fp_hex                           0x00000000   Number         0  stubs.o ABSOLUTE
    _printf_g                                0x00000000   Number         0  stubs.o ABSOLUTE
    _printf_i                                0x00000000   Number         0  stubs.o ABSOLUTE
    _printf_int_dec                          0x00000000   Number         0  stubs.o ABSOLUTE
    _printf_l                                0x00000000   Number         0  stubs.o ABSOLUTE
    _printf_lc                               0x00000000   Number         0  stubs.o ABSOLUTE
    _printf_ll                               0x00000000   Number         0  stubs.o ABSOLUTE
    _printf_lld                              0x00000000   Number         0  stubs.o ABSOLUTE
    _printf_lli                              0x00000000   Number         0  stubs.o ABSOLUTE
    _printf_llo                              0x00000000   Number         0  stubs.o ABSOLUTE
    _printf_llu                              0x00000000   Number         0  stubs.o ABSOLUTE
    _printf_llx                              0x00000000   Number         0  stubs.o ABSOLUTE
    _printf_longlong_dec                     0x00000000   Number         0  stubs.o ABSOLUTE
    _printf_longlong_hex                     0x00000000   Number         0  stubs.o ABSOLUTE
    _printf_longlong_oct                     0x00000000   Number         0  stubs.o ABSOLUTE
    _printf_ls                               0x00000000   Number         0  stubs.o ABSOLUTE
    _printf_mbtowc                           0x00000000   Number         0  stubs.o ABSOLUTE
    _printf_n                                0x00000000   Number         0  stubs.o ABSOLUTE
    _printf_o                                0x00000000   Number         0  stubs.o ABSOLUTE
    _printf_p                                0x00000000   Number         0  stubs.o ABSOLUTE
    _printf_percent                          0x00000000   Number         0  stubs.o ABSOLUTE
    _printf_pre_padding                      0x00000000   Number         0  stubs.o ABSOLUTE
    _printf_return_value                     0x00000000   Number         0  stubs.o ABSOLUTE
    _printf_s                                0x00000000   Number         0  stubs.o ABSOLUTE
    _printf_sizespec                         0x00000000   Number         0  stubs.o ABSOLUTE
    _printf_str                              0x00000000   Number         0  stubs.o ABSOLUTE
    _printf_truncate_signed                  0x00000000   Number         0  stubs.o ABSOLUTE
    _printf_truncate_unsigned                0x00000000   Number         0  stubs.o ABSOLUTE
    _printf_u                                0x00000000   Number         0  stubs.o ABSOLUTE
    _printf_wc                               0x00000000   Number         0  stubs.o ABSOLUTE
    _printf_wctomb                           0x00000000   Number         0  stubs.o ABSOLUTE
    _printf_widthprec                        0x00000000   Number         0  stubs.o ABSOLUTE
    _printf_x                                0x00000000   Number         0  stubs.o ABSOLUTE
    __cpp_initialize__aeabi_                  - Undefined Weak Reference
    __cxa_finalize                            - Undefined Weak Reference
    _clock_init                               - Undefined Weak Reference
    _microlib_exit                            - Undefined Weak Reference
    __Vectors_Size                           0x000001c4   Number         0  startup_stm32f446xx.o ABSOLUTE
    __Vectors                                0x08000000   Data           4  startup_stm32f446xx.o(RESET)
    __Vectors_End                            0x080001c4   Data           0  startup_stm32f446xx.o(RESET)
    __main                                   0x080001c5   Thumb Code     0  entry.o(.ARM.Collect$$$$00000000)
    _main_stk                                0x080001c5   Thumb Code     0  entry2.o(.ARM.Collect$$$$00000001)
    _main_scatterload                        0x080001c9   Thumb Code     0  entry5.o(.ARM.Collect$$$$00000004)
    __main_after_scatterload                 0x080001cd   Thumb Code     0  entry5.o(.ARM.Collect$$$$00000004)
    _main_clock                              0x080001cd   Thumb Code     0  entry7b.o(.ARM.Collect$$$$00000008)
    _main_cpp_init                           0x080001cd   Thumb Code     0  entry8b.o(.ARM.Collect$$$$0000000A)
    _main_init                               0x080001cd   Thumb Code     0  entry9a.o(.ARM.Collect$$$$0000000B)
    __rt_final_cpp                           0x080001d5   Thumb Code     0  entry10a.o(.ARM.Collect$$$$0000000D)
    __rt_final_exit                          0x080001d5   Thumb Code     0  entry11a.o(.ARM.Collect$$$$0000000F)
    Reset_Handler                            0x080001d9   Thumb Code     8  startup_stm32f446xx.o(.text)
    ADC_IRQHandler                           0x080001f3   Thumb Code     0  startup_stm32f446xx.o(.text)
    CAN1_RX0_IRQHandler                      0x080001f3   Thumb Code     0  startup_stm32f446xx.o(.text)
    CAN1_RX1_IRQHandler                      0x080001f3   Thumb Code     0  startup_stm32f446xx.o(.text)
    CAN1_SCE_IRQHandler                      0x080001f3   Thumb Code     0  startup_stm32f446xx.o(.text)
    CAN1_TX_IRQHandler                       0x080001f3   Thumb Code     0  startup_stm32f446xx.o(.text)
    CAN2_RX1_IRQHandler                      0x080001f3   Thumb Code     0  startup_stm32f446xx.o(.text)
    CAN2_SCE_IRQHandler                      0x080001f3   Thumb Code     0  startup_stm32f446xx.o(.text)
    CEC_IRQHandler                           0x080001f3   Thumb Code     0  startup_stm32f446xx.o(.text)
    DCMI_IRQHandler                          0x080001f3   Thumb Code     0  startup_stm32f446xx.o(.text)
    DMA1_Stream0_IRQHandler                  0x080001f3   Thumb Code     0  startup_stm32f446xx.o(.text)
    DMA1_Stream1_IRQHandler                  0x080001f3   Thumb Code     0  startup_stm32f446xx.o(.text)
    DMA1_Stream2_IRQHandler                  0x080001f3   Thumb Code     0  startup_stm32f446xx.o(.text)
    DMA1_Stream3_IRQHandler                  0x080001f3   Thumb Code     0  startup_stm32f446xx.o(.text)
    DMA1_Stream4_IRQHandler                  0x080001f3   Thumb Code     0  startup_stm32f446xx.o(.text)
    DMA1_Stream5_IRQHandler                  0x080001f3   Thumb Code     0  startup_stm32f446xx.o(.text)
    DMA1_Stream6_IRQHandler                  0x080001f3   Thumb Code     0  startup_stm32f446xx.o(.text)
    DMA1_Stream7_IRQHandler                  0x080001f3   Thumb Code     0  startup_stm32f446xx.o(.text)
    DMA2_Stream0_IRQHandler                  0x080001f3   Thumb Code     0  startup_stm32f446xx.o(.text)
    DMA2_Stream1_IRQHandler                  0x080001f3   Thumb Code     0  startup_stm32f446xx.o(.text)
    DMA2_Stream2_IRQHandler                  0x080001f3   Thumb Code     0  startup_stm32f446xx.o(.text)
    DMA2_Stream3_IRQHandler                  0x080001f3   Thumb Code     0  startup_stm32f446xx.o(.text)
    DMA2_Stream4_IRQHandler                  0x080001f3   Thumb Code     0  startup_stm32f446xx.o(.text)
    DMA2_Stream5_IRQHandler                  0x080001f3   Thumb Code     0  startup_stm32f446xx.o(.text)
    DMA2_Stream6_IRQHandler                  0x080001f3   Thumb Code     0  startup_stm32f446xx.o(.text)
    DMA2_Stream7_IRQHandler                  0x080001f3   Thumb Code     0  startup_stm32f446xx.o(.text)
    EXTI0_IRQHandler                         0x080001f3   Thumb Code     0  startup_stm32f446xx.o(.text)
    EXTI15_10_IRQHandler                     0x080001f3   Thumb Code     0  startup_stm32f446xx.o(.text)
    EXTI3_IRQHandler                         0x080001f3   Thumb Code     0  startup_stm32f446xx.o(.text)
    EXTI4_IRQHandler                         0x080001f3   Thumb Code     0  startup_stm32f446xx.o(.text)
    FLASH_IRQHandler                         0x080001f3   Thumb Code     0  startup_stm32f446xx.o(.text)
    FMC_IRQHandler                           0x080001f3   Thumb Code     0  startup_stm32f446xx.o(.text)
    FPU_IRQHandler                           0x080001f3   Thumb Code     0  startup_stm32f446xx.o(.text)
    I2C1_ER_IRQHandler                       0x080001f3   Thumb Code     0  startup_stm32f446xx.o(.text)
    I2C1_EV_IRQHandler                       0x080001f3   Thumb Code     0  startup_stm32f446xx.o(.text)
    I2C2_ER_IRQHandler                       0x080001f3   Thumb Code     0  startup_stm32f446xx.o(.text)
    I2C2_EV_IRQHandler                       0x080001f3   Thumb Code     0  startup_stm32f446xx.o(.text)
    I2C3_ER_IRQHandler                       0x080001f3   Thumb Code     0  startup_stm32f446xx.o(.text)
    I2C3_EV_IRQHandler                       0x080001f3   Thumb Code     0  startup_stm32f446xx.o(.text)
    I2C4_Error_IRQHandler                    0x080001f3   Thumb Code     0  startup_stm32f446xx.o(.text)
    I2C4_Event_IRQHandler                    0x080001f3   Thumb Code     0  startup_stm32f446xx.o(.text)
    OTG_FS_WKUP_IRQHandler                   0x080001f3   Thumb Code     0  startup_stm32f446xx.o(.text)
    OTG_HS_EP1_IN_IRQHandler                 0x080001f3   Thumb Code     0  startup_stm32f446xx.o(.text)
    OTG_HS_EP1_OUT_IRQHandler                0x080001f3   Thumb Code     0  startup_stm32f446xx.o(.text)
    OTG_HS_IRQHandler                        0x080001f3   Thumb Code     0  startup_stm32f446xx.o(.text)
    OTG_HS_WKUP_IRQHandler                   0x080001f3   Thumb Code     0  startup_stm32f446xx.o(.text)
    PVD_IRQHandler                           0x080001f3   Thumb Code     0  startup_stm32f446xx.o(.text)
    QUADSPI_IRQHandler                       0x080001f3   Thumb Code     0  startup_stm32f446xx.o(.text)
    RCC_IRQHandler                           0x080001f3   Thumb Code     0  startup_stm32f446xx.o(.text)
    SAI1_IRQHandler                          0x080001f3   Thumb Code     0  startup_stm32f446xx.o(.text)
    SAI2_IRQHandler                          0x080001f3   Thumb Code     0  startup_stm32f446xx.o(.text)
    SDIO_IRQHandler                          0x080001f3   Thumb Code     0  startup_stm32f446xx.o(.text)
    SPDIF_RX_IRQHandler                      0x080001f3   Thumb Code     0  startup_stm32f446xx.o(.text)
    SPI1_IRQHandler                          0x080001f3   Thumb Code     0  startup_stm32f446xx.o(.text)
    SPI2_IRQHandler                          0x080001f3   Thumb Code     0  startup_stm32f446xx.o(.text)
    SPI3_IRQHandler                          0x080001f3   Thumb Code     0  startup_stm32f446xx.o(.text)
    SPI4_IRQHandler                          0x080001f3   Thumb Code     0  startup_stm32f446xx.o(.text)
    TAMP_STAMP_IRQHandler                    0x080001f3   Thumb Code     0  startup_stm32f446xx.o(.text)
    TIM1_BRK_TIM9_IRQHandler                 0x080001f3   Thumb Code     0  startup_stm32f446xx.o(.text)
    TIM1_CC_IRQHandler                       0x080001f3   Thumb Code     0  startup_stm32f446xx.o(.text)
    TIM1_TRG_COM_TIM11_IRQHandler            0x080001f3   Thumb Code     0  startup_stm32f446xx.o(.text)
    TIM1_UP_TIM10_IRQHandler                 0x080001f3   Thumb Code     0  startup_stm32f446xx.o(.text)
    TIM2_IRQHandler                          0x080001f3   Thumb Code     0  startup_stm32f446xx.o(.text)
    TIM7_IRQHandler                          0x080001f3   Thumb Code     0  startup_stm32f446xx.o(.text)
    TIM8_BRK_TIM12_IRQHandler                0x080001f3   Thumb Code     0  startup_stm32f446xx.o(.text)
    TIM8_CC_IRQHandler                       0x080001f3   Thumb Code     0  startup_stm32f446xx.o(.text)
    TIM8_TRG_COM_TIM14_IRQHandler            0x080001f3   Thumb Code     0  startup_stm32f446xx.o(.text)
    TIM8_UP_TIM13_IRQHandler                 0x080001f3   Thumb Code     0  startup_stm32f446xx.o(.text)
    UART4_IRQHandler                         0x080001f3   Thumb Code     0  startup_stm32f446xx.o(.text)
    UART5_IRQHandler                         0x080001f3   Thumb Code     0  startup_stm32f446xx.o(.text)
    USART1_IRQHandler                        0x080001f3   Thumb Code     0  startup_stm32f446xx.o(.text)
    USART6_IRQHandler                        0x080001f3   Thumb Code     0  startup_stm32f446xx.o(.text)
    WWDG_IRQHandler                          0x080001f3   Thumb Code     0  startup_stm32f446xx.o(.text)
    HAL_InitTick                             0x080001ff   Thumb Code    34  stm32f4xx_hal.o(.text)
    HAL_Init                                 0x08000221   Thumb Code    48  stm32f4xx_hal.o(.text)
    HAL_MspDeInit                            0x08000251   Thumb Code     2  stm32f4xx_hal.o(.text)
    HAL_DeInit                               0x08000253   Thumb Code    46  stm32f4xx_hal.o(.text)
    HAL_SuspendTick                          0x080002a7   Thumb Code    14  stm32f4xx_hal.o(.text)
    HAL_ResumeTick                           0x080002b5   Thumb Code    14  stm32f4xx_hal.o(.text)
    HAL_GetHalVersion                        0x080002c3   Thumb Code     6  stm32f4xx_hal.o(.text)
    HAL_GetREVID                             0x080002c9   Thumb Code     8  stm32f4xx_hal.o(.text)
    HAL_GetDEVID                             0x080002d1   Thumb Code    10  stm32f4xx_hal.o(.text)
    HAL_DBGMCU_EnableDBGSleepMode            0x080002db   Thumb Code    12  stm32f4xx_hal.o(.text)
    HAL_DBGMCU_DisableDBGSleepMode           0x080002e7   Thumb Code    12  stm32f4xx_hal.o(.text)
    HAL_DBGMCU_EnableDBGStopMode             0x080002f3   Thumb Code    12  stm32f4xx_hal.o(.text)
    HAL_DBGMCU_DisableDBGStopMode            0x080002ff   Thumb Code    12  stm32f4xx_hal.o(.text)
    HAL_DBGMCU_EnableDBGStandbyMode          0x0800030b   Thumb Code    12  stm32f4xx_hal.o(.text)
    HAL_DBGMCU_DisableDBGStandbyMode         0x08000317   Thumb Code    12  stm32f4xx_hal.o(.text)
    HAL_EnableCompensationCell               0x08000323   Thumb Code    26  stm32f4xx_hal.o(.text)
    HAL_DisableCompensationCell              0x0800033d   Thumb Code    28  stm32f4xx_hal.o(.text)
    HAL_CAN_Init                             0x0800036f   Thumb Code   346  stm32f4xx_hal_can.o(.text)
    HAL_CAN_ConfigFilter                     0x080004c9   Thumb Code   244  stm32f4xx_hal_can.o(.text)
    HAL_CAN_DeInit                           0x080005bf   Thumb Code    36  stm32f4xx_hal_can.o(.text)
    HAL_CAN_Transmit                         0x080005e3   Thumb Code   426  stm32f4xx_hal_can.o(.text)
    HAL_CAN_Transmit_IT                      0x0800078d   Thumb Code   414  stm32f4xx_hal_can.o(.text)
    HAL_CAN_Receive                          0x0800092b   Thumb Code   346  stm32f4xx_hal_can.o(.text)
    HAL_CAN_Receive_IT                       0x08000a85   Thumb Code   146  stm32f4xx_hal_can.o(.text)
    HAL_CAN_Sleep                            0x08000b17   Thumb Code   138  stm32f4xx_hal_can.o(.text)
    HAL_CAN_WakeUp                           0x08000ba1   Thumb Code   130  stm32f4xx_hal_can.o(.text)
    HAL_CAN_ErrorCallback                    0x08000c23   Thumb Code     2  stm32f4xx_hal_can.o(.text)
    HAL_CAN_RxCpltCallback                   0x08000c25   Thumb Code     2  stm32f4xx_hal_can.o(.text)
    HAL_CAN_TxCpltCallback                   0x08000d7d   Thumb Code     2  stm32f4xx_hal_can.o(.text)
    HAL_CAN_IRQHandler                       0x08000d7f   Thumb Code   496  stm32f4xx_hal_can.o(.text)
    HAL_CAN_GetState                         0x08000f6f   Thumb Code     6  stm32f4xx_hal_can.o(.text)
    HAL_CAN_GetError                         0x08000f75   Thumb Code     4  stm32f4xx_hal_can.o(.text)
    HAL_NVIC_SetPriorityGrouping             0x08000f85   Thumb Code    30  stm32f4xx_hal_cortex.o(.text)
    HAL_NVIC_SetPriority                     0x08000fa3   Thumb Code    96  stm32f4xx_hal_cortex.o(.text)
    HAL_NVIC_EnableIRQ                       0x08001003   Thumb Code    24  stm32f4xx_hal_cortex.o(.text)
    HAL_NVIC_DisableIRQ                      0x0800101b   Thumb Code    24  stm32f4xx_hal_cortex.o(.text)
    HAL_NVIC_SystemReset                     0x08001033   Thumb Code    26  stm32f4xx_hal_cortex.o(.text)
    HAL_SYSTICK_Config                       0x0800104d   Thumb Code    38  stm32f4xx_hal_cortex.o(.text)
    HAL_MPU_ConfigRegion                     0x08001073   Thumb Code    80  stm32f4xx_hal_cortex.o(.text)
    HAL_NVIC_GetPriorityGrouping             0x080010c3   Thumb Code    10  stm32f4xx_hal_cortex.o(.text)
    HAL_NVIC_GetPriority                     0x080010cd   Thumb Code    84  stm32f4xx_hal_cortex.o(.text)
    HAL_NVIC_SetPendingIRQ                   0x08001121   Thumb Code    24  stm32f4xx_hal_cortex.o(.text)
    HAL_NVIC_GetPendingIRQ                   0x08001139   Thumb Code    30  stm32f4xx_hal_cortex.o(.text)
    HAL_NVIC_ClearPendingIRQ                 0x08001157   Thumb Code    24  stm32f4xx_hal_cortex.o(.text)
    HAL_NVIC_GetActive                       0x0800116f   Thumb Code    30  stm32f4xx_hal_cortex.o(.text)
    HAL_SYSTICK_CLKSourceConfig              0x0800118d   Thumb Code    22  stm32f4xx_hal_cortex.o(.text)
    HAL_SYSTICK_Callback                     0x080011a3   Thumb Code     2  stm32f4xx_hal_cortex.o(.text)
    HAL_SYSTICK_IRQHandler                   0x080011a5   Thumb Code     8  stm32f4xx_hal_cortex.o(.text)
    HAL_DMA_Init                             0x080011bd   Thumb Code   162  stm32f4xx_hal_dma.o(.text)
    HAL_DMA_DeInit                           0x0800125f   Thumb Code   124  stm32f4xx_hal_dma.o(.text)
    HAL_DMA_Start                            0x080012db   Thumb Code   110  stm32f4xx_hal_dma.o(.text)
    HAL_DMA_Start_IT                         0x08001349   Thumb Code   130  stm32f4xx_hal_dma.o(.text)
    HAL_DMA_Abort                            0x080013cb   Thumb Code    90  stm32f4xx_hal_dma.o(.text)
    HAL_DMA_PollForTransfer                  0x08001425   Thumb Code   342  stm32f4xx_hal_dma.o(.text)
    HAL_DMA_IRQHandler                       0x0800157b   Thumb Code   500  stm32f4xx_hal_dma.o(.text)
    HAL_DMA_GetState                         0x0800176f   Thumb Code     6  stm32f4xx_hal_dma.o(.text)
    HAL_DMA_GetError                         0x08001775   Thumb Code     4  stm32f4xx_hal_dma.o(.text)
    HAL_GPIO_Init                            0x08001779   Thumb Code   516  stm32f4xx_hal_gpio.o(.text)
    HAL_GPIO_DeInit                          0x0800197d   Thumb Code   326  stm32f4xx_hal_gpio.o(.text)
    HAL_GPIO_ReadPin                         0x08001ac3   Thumb Code    10  stm32f4xx_hal_gpio.o(.text)
    HAL_GPIO_WritePin                        0x08001acd   Thumb Code    10  stm32f4xx_hal_gpio.o(.text)
    HAL_GPIO_TogglePin                       0x08001ad7   Thumb Code     8  stm32f4xx_hal_gpio.o(.text)
    HAL_GPIO_LockPin                         0x08001adf   Thumb Code    36  stm32f4xx_hal_gpio.o(.text)
    HAL_GPIO_EXTI_Callback                   0x08001b03   Thumb Code     2  stm32f4xx_hal_gpio.o(.text)
    HAL_GPIO_EXTI_IRQHandler                 0x08001b05   Thumb Code    20  stm32f4xx_hal_gpio.o(.text)
    HAL_HCD_Init                             0x08001b2f   Thumb Code   112  stm32f4xx_hal_hcd.o(.text)
    HAL_HCD_HC_Init                          0x08001b9f   Thumb Code   100  stm32f4xx_hal_hcd.o(.text)
    HAL_HCD_HC_Halt                          0x08001c03   Thumb Code    36  stm32f4xx_hal_hcd.o(.text)
    HAL_HCD_DeInit                           0x08001c29   Thumb Code    38  stm32f4xx_hal_hcd.o(.text)
    HAL_HCD_HC_SubmitRequest                 0x08001c4f   Thumb Code   214  stm32f4xx_hal_hcd.o(.text)
    HAL_HCD_IRQHandler                       0x08001d2d   Thumb Code  1790  stm32f4xx_hal_hcd.o(.text)
    HAL_HCD_Start                            0x0800242b   Thumb Code    44  stm32f4xx_hal_hcd.o(.text)
    HAL_HCD_Stop                             0x08002457   Thumb Code    36  stm32f4xx_hal_hcd.o(.text)
    HAL_HCD_ResetPort                        0x0800247b   Thumb Code     6  stm32f4xx_hal_hcd.o(.text)
    HAL_HCD_GetState                         0x08002481   Thumb Code     6  stm32f4xx_hal_hcd.o(.text)
    HAL_HCD_HC_GetURBState                   0x08002487   Thumb Code    14  stm32f4xx_hal_hcd.o(.text)
    HAL_HCD_HC_GetXferCount                  0x08002495   Thumb Code    12  stm32f4xx_hal_hcd.o(.text)
    HAL_HCD_HC_GetState                      0x080024a1   Thumb Code    14  stm32f4xx_hal_hcd.o(.text)
    HAL_HCD_GetCurrentFrame                  0x080024af   Thumb Code     6  stm32f4xx_hal_hcd.o(.text)
    HAL_HCD_GetCurrentSpeed                  0x080024b5   Thumb Code     6  stm32f4xx_hal_hcd.o(.text)
    HAL_PWR_DeInit                           0x080024c1   Thumb Code    20  stm32f4xx_hal_pwr.o(.text)
    HAL_PWR_EnableBkUpAccess                 0x080024d5   Thumb Code    26  stm32f4xx_hal_pwr.o(.text)
    HAL_PWR_DisableBkUpAccess                0x080024ef   Thumb Code    28  stm32f4xx_hal_pwr.o(.text)
    HAL_PWR_ConfigPVD                        0x0800250b   Thumb Code   142  stm32f4xx_hal_pwr.o(.text)
    HAL_PWR_EnablePVD                        0x08002599   Thumb Code    26  stm32f4xx_hal_pwr.o(.text)
    HAL_PWR_DisablePVD                       0x080025b3   Thumb Code    26  stm32f4xx_hal_pwr.o(.text)
    HAL_PWR_EnableWakeUpPin                  0x080025cd   Thumb Code    10  stm32f4xx_hal_pwr.o(.text)
    HAL_PWR_DisableWakeUpPin                 0x080025d7   Thumb Code    12  stm32f4xx_hal_pwr.o(.text)
    HAL_PWR_EnterSLEEPMode                   0x080025e3   Thumb Code    26  stm32f4xx_hal_pwr.o(.text)
    HAL_PWR_EnterSTOPMode                    0x080025fd   Thumb Code    44  stm32f4xx_hal_pwr.o(.text)
    HAL_PWR_EnterSTANDBYMode                 0x08002629   Thumb Code    24  stm32f4xx_hal_pwr.o(.text)
    HAL_PWR_PVDCallback                      0x08002641   Thumb Code     2  stm32f4xx_hal_pwr.o(.text)
    HAL_PWR_PVD_IRQHandler                   0x08002643   Thumb Code    26  stm32f4xx_hal_pwr.o(.text)
    HAL_PWR_EnableSleepOnExit                0x0800265d   Thumb Code    12  stm32f4xx_hal_pwr.o(.text)
    HAL_PWR_DisableSleepOnExit               0x08002669   Thumb Code    12  stm32f4xx_hal_pwr.o(.text)
    HAL_PWR_EnableSEVOnPend                  0x08002675   Thumb Code    12  stm32f4xx_hal_pwr.o(.text)
    HAL_PWR_DisableSEVOnPend                 0x08002681   Thumb Code    12  stm32f4xx_hal_pwr.o(.text)
    HAL_PWREx_EnableBkUpReg                  0x080026a1   Thumb Code    72  stm32f4xx_hal_pwr_ex.o(.text)
    HAL_PWREx_DisableBkUpReg                 0x080026e9   Thumb Code    74  stm32f4xx_hal_pwr_ex.o(.text)
    HAL_PWREx_EnableFlashPowerDown           0x08002733   Thumb Code    26  stm32f4xx_hal_pwr_ex.o(.text)
    HAL_PWREx_DisableFlashPowerDown          0x0800274d   Thumb Code    28  stm32f4xx_hal_pwr_ex.o(.text)
    HAL_PWREx_GetVoltageRange                0x08002769   Thumb Code    10  stm32f4xx_hal_pwr_ex.o(.text)
    HAL_PWREx_ControlVoltageScaling          0x08002773   Thumb Code   176  stm32f4xx_hal_pwr_ex.o(.text)
    HAL_PWREx_EnableOverDrive                0x08002823   Thumb Code   146  stm32f4xx_hal_pwr_ex.o(.text)
    HAL_PWREx_DisableOverDrive               0x080028b5   Thumb Code   148  stm32f4xx_hal_pwr_ex.o(.text)
    HAL_PWREx_EnterUnderDriveSTOPMode        0x08002949   Thumb Code   136  stm32f4xx_hal_pwr_ex.o(.text)
    HAL_RCC_ClockConfig                      0x08002d8d   Thumb Code   596  stm32f4xx_hal_rcc.o(.text)
    HAL_RCC_MCOConfig                        0x08002fe1   Thumb Code   132  stm32f4xx_hal_rcc.o(.text)
    HAL_RCC_EnableCSS                        0x08003065   Thumb Code     8  stm32f4xx_hal_rcc.o(.text)
    HAL_RCC_DisableCSS                       0x0800306d   Thumb Code     8  stm32f4xx_hal_rcc.o(.text)
    HAL_RCC_GetHCLKFreq                      0x080030f5   Thumb Code    38  stm32f4xx_hal_rcc.o(.text)
    HAL_RCC_GetPCLK1Freq                     0x0800311b   Thumb Code    64  stm32f4xx_hal_rcc.o(.text)
    HAL_RCC_GetPCLK2Freq                     0x0800315b   Thumb Code    64  stm32f4xx_hal_rcc.o(.text)
    HAL_RCC_GetClockConfig                   0x08003291   Thumb Code    54  stm32f4xx_hal_rcc.o(.text)
    HAL_RCC_CSSCallback                      0x080032c7   Thumb Code     2  stm32f4xx_hal_rcc.o(.text)
    HAL_RCC_NMI_IRQHandler                   0x080032c9   Thumb Code    26  stm32f4xx_hal_rcc.o(.text)
    HAL_RCC_DeInit                           0x08003325   Thumb Code    74  stm32f4xx_hal_rcc_ex.o(.text)
    HAL_RCCEx_PeriphCLKConfig                0x0800336f   Thumb Code  1514  stm32f4xx_hal_rcc_ex.o(.text)
    HAL_RCCEx_GetPeriphCLKConfig             0x08003959   Thumb Code   368  stm32f4xx_hal_rcc_ex.o(.text)
    HAL_RCCEx_GetPeriphCLKFreq               0x08003ac9   Thumb Code   252  stm32f4xx_hal_rcc_ex.o(.text)
    HAL_RCC_OscConfig                        0x08003bc5   Thumb Code  1042  stm32f4xx_hal_rcc_ex.o(.text)
    HAL_RCC_GetOscConfig                     0x08003fd7   Thumb Code   268  stm32f4xx_hal_rcc_ex.o(.text)
    HAL_RCCEx_SelectLSEMode                  0x080040e3   Thumb Code    20  stm32f4xx_hal_rcc_ex.o(.text)
    HAL_RCC_GetSysClockFreq                  0x080040f7   Thumb Code   266  stm32f4xx_hal_rcc_ex.o(.text)
    RTC_EnterInitMode                        0x08004201   Thumb Code    66  stm32f4xx_hal_rtc.o(.text)
    HAL_RTC_MspInit                          0x08004243   Thumb Code     2  stm32f4xx_hal_rtc.o(.text)
    HAL_RTC_Init                             0x08004245   Thumb Code   158  stm32f4xx_hal_rtc.o(.text)
    HAL_RTC_MspDeInit                        0x080042e3   Thumb Code     2  stm32f4xx_hal_rtc.o(.text)
    HAL_RTC_WaitForSynchro                   0x080042e5   Thumb Code    60  stm32f4xx_hal_rtc.o(.text)
    HAL_RTC_DeInit                           0x08004321   Thumb Code   218  stm32f4xx_hal_rtc.o(.text)
    RTC_Bcd2ToByte                           0x080043fb   Thumb Code    18  stm32f4xx_hal_rtc.o(.text)
    RTC_ByteToBcd2                           0x0800440d   Thumb Code    24  stm32f4xx_hal_rtc.o(.text)
    HAL_RTC_SetTime                          0x08004425   Thumb Code   236  stm32f4xx_hal_rtc.o(.text)
    HAL_RTC_GetTime                          0x08004511   Thumb Code   112  stm32f4xx_hal_rtc.o(.text)
    HAL_RTC_SetDate                          0x08004581   Thumb Code   204  stm32f4xx_hal_rtc.o(.text)
    HAL_RTC_GetDate                          0x0800464d   Thumb Code    98  stm32f4xx_hal_rtc.o(.text)
    HAL_RTC_SetAlarm                         0x080046af   Thumb Code   386  stm32f4xx_hal_rtc.o(.text)
    HAL_RTC_SetAlarm_IT                      0x08004831   Thumb Code   426  stm32f4xx_hal_rtc.o(.text)
    HAL_RTC_DeactivateAlarm                  0x080049db   Thumb Code   204  stm32f4xx_hal_rtc.o(.text)
    HAL_RTC_GetAlarm                         0x08004aa7   Thumb Code   166  stm32f4xx_hal_rtc.o(.text)
    HAL_RTC_AlarmAEventCallback              0x08004b4d   Thumb Code     2  stm32f4xx_hal_rtc.o(.text)
    HAL_RTC_AlarmIRQHandler                  0x08004b4f   Thumb Code    94  stm32f4xx_hal_rtc.o(.text)
    HAL_RTC_PollForAlarmAEvent               0x08004bad   Thumb Code    78  stm32f4xx_hal_rtc.o(.text)
    HAL_RTC_GetState                         0x08004bfb   Thumb Code     4  stm32f4xx_hal_rtc.o(.text)
    HAL_RTCEx_SetTimeStamp                   0x08004c0d   Thumb Code   100  stm32f4xx_hal_rtc_ex.o(.text)
    HAL_RTCEx_SetTimeStamp_IT                0x08004c71   Thumb Code   136  stm32f4xx_hal_rtc_ex.o(.text)
    HAL_RTCEx_DeactivateTimeStamp            0x08004cf9   Thumb Code    70  stm32f4xx_hal_rtc_ex.o(.text)
    HAL_RTCEx_GetTimeStamp                   0x08004d3f   Thumb Code   144  stm32f4xx_hal_rtc_ex.o(.text)
    HAL_RTCEx_SetTamper                      0x08004dcf   Thumb Code   104  stm32f4xx_hal_rtc_ex.o(.text)
    HAL_RTCEx_SetTamper_IT                   0x08004e37   Thumb Code   134  stm32f4xx_hal_rtc_ex.o(.text)
    HAL_RTCEx_DeactivateTamper               0x08004ebd   Thumb Code    40  stm32f4xx_hal_rtc_ex.o(.text)
    HAL_RTCEx_Tamper2EventCallback           0x08004ee5   Thumb Code     2  stm32f4xx_hal_rtc_ex.o(.text)
    HAL_RTCEx_Tamper1EventCallback           0x08004ee7   Thumb Code     2  stm32f4xx_hal_rtc_ex.o(.text)
    HAL_RTCEx_TimeStampEventCallback         0x08004ee9   Thumb Code     2  stm32f4xx_hal_rtc_ex.o(.text)
    HAL_RTCEx_TamperTimeStampIRQHandler      0x08004eeb   Thumb Code   132  stm32f4xx_hal_rtc_ex.o(.text)
    HAL_RTCEx_PollForTimeStampEvent          0x08004f6f   Thumb Code    96  stm32f4xx_hal_rtc_ex.o(.text)
    HAL_RTCEx_PollForTamper1Event            0x08004fcf   Thumb Code    78  stm32f4xx_hal_rtc_ex.o(.text)
    HAL_RTCEx_PollForTamper2Event            0x0800501d   Thumb Code    78  stm32f4xx_hal_rtc_ex.o(.text)
    HAL_RTCEx_SetWakeUpTimer                 0x0800506b   Thumb Code   248  stm32f4xx_hal_rtc_ex.o(.text)
    HAL_RTCEx_SetWakeUpTimer_IT              0x08005163   Thumb Code   252  stm32f4xx_hal_rtc_ex.o(.text)
    HAL_RTCEx_DeactivateWakeUpTimer          0x0800525f   Thumb Code   134  stm32f4xx_hal_rtc_ex.o(.text)
    HAL_RTCEx_GetWakeUpTimer                 0x080052e5   Thumb Code     8  stm32f4xx_hal_rtc_ex.o(.text)
    HAL_RTCEx_WakeUpTimerEventCallback       0x080052ed   Thumb Code     2  stm32f4xx_hal_rtc_ex.o(.text)
    HAL_RTCEx_WakeUpTimerIRQHandler          0x080052ef   Thumb Code    56  stm32f4xx_hal_rtc_ex.o(.text)
    HAL_RTCEx_PollForWakeUpTimerEvent        0x08005327   Thumb Code    78  stm32f4xx_hal_rtc_ex.o(.text)
    HAL_RTCEx_BKUPWrite                      0x08005375   Thumb Code    10  stm32f4xx_hal_rtc_ex.o(.text)
    HAL_RTCEx_BKUPRead                       0x0800537f   Thumb Code    10  stm32f4xx_hal_rtc_ex.o(.text)
    HAL_RTCEx_SetCoarseCalib                 0x08005389   Thumb Code   112  stm32f4xx_hal_rtc_ex.o(.text)
    HAL_RTCEx_DeactivateCoarseCalib          0x080053f9   Thumb Code    92  stm32f4xx_hal_rtc_ex.o(.text)
    HAL_RTCEx_SetSmoothCalib                 0x08005455   Thumb Code   142  stm32f4xx_hal_rtc_ex.o(.text)
    HAL_RTCEx_SetSynchroShift                0x080054e3   Thumb Code   176  stm32f4xx_hal_rtc_ex.o(.text)
    HAL_RTCEx_SetCalibrationOutPut           0x08005593   Thumb Code    90  stm32f4xx_hal_rtc_ex.o(.text)
    HAL_RTCEx_DeactivateCalibrationOutPut    0x080055ed   Thumb Code    70  stm32f4xx_hal_rtc_ex.o(.text)
    HAL_RTCEx_SetRefClock                    0x08005633   Thumb Code    92  stm32f4xx_hal_rtc_ex.o(.text)
    HAL_RTCEx_DeactivateRefClock             0x0800568f   Thumb Code    92  stm32f4xx_hal_rtc_ex.o(.text)
    HAL_RTCEx_EnableBypassShadow             0x080056eb   Thumb Code    56  stm32f4xx_hal_rtc_ex.o(.text)
    HAL_RTCEx_DisableBypassShadow            0x08005723   Thumb Code    56  stm32f4xx_hal_rtc_ex.o(.text)
    HAL_RTCEx_AlarmBEventCallback            0x0800575b   Thumb Code     2  stm32f4xx_hal_rtc_ex.o(.text)
    HAL_RTCEx_PollForAlarmBEvent             0x0800575d   Thumb Code    78  stm32f4xx_hal_rtc_ex.o(.text)
    TIM_Base_SetConfig                       0x080057ad   Thumb Code   180  stm32f4xx_hal_tim.o(.text)
    HAL_TIM_Base_Init                        0x08005863   Thumb Code    54  stm32f4xx_hal_tim.o(.text)
    HAL_TIM_Base_DeInit                      0x0800589b   Thumb Code    56  stm32f4xx_hal_tim.o(.text)
    HAL_TIM_Base_Start                       0x080058d3   Thumb Code    26  stm32f4xx_hal_tim.o(.text)
    HAL_TIM_Base_Stop                        0x080058ed   Thumb Code    44  stm32f4xx_hal_tim.o(.text)
    HAL_TIM_Base_Start_IT                    0x08005919   Thumb Code    24  stm32f4xx_hal_tim.o(.text)
    HAL_TIM_Base_Stop_IT                     0x08005931   Thumb Code    42  stm32f4xx_hal_tim.o(.text)
    HAL_TIM_ErrorCallback                    0x0800595b   Thumb Code     2  stm32f4xx_hal_tim.o(.text)
    TIM_DMAError                             0x0800595d   Thumb Code    16  stm32f4xx_hal_tim.o(.text)
    HAL_TIM_PeriodElapsedCallback            0x0800596d   Thumb Code     2  stm32f4xx_hal_tim.o(.text)
    HAL_TIM_Base_Start_DMA                   0x0800597f   Thumb Code    94  stm32f4xx_hal_tim.o(.text)
    HAL_TIM_Base_Stop_DMA                    0x080059dd   Thumb Code    48  stm32f4xx_hal_tim.o(.text)
    HAL_TIM_OC_MspInit                       0x08005a0d   Thumb Code     2  stm32f4xx_hal_tim.o(.text)
    HAL_TIM_OC_Init                          0x08005a0f   Thumb Code    54  stm32f4xx_hal_tim.o(.text)
    HAL_TIM_OC_MspDeInit                     0x08005a45   Thumb Code     2  stm32f4xx_hal_tim.o(.text)
    HAL_TIM_OC_DeInit                        0x08005a47   Thumb Code    56  stm32f4xx_hal_tim.o(.text)
    TIM_CCxChannelCmd                        0x08005a7f   Thumb Code    26  stm32f4xx_hal_tim.o(.text)
    HAL_TIM_OC_Start                         0x08005a99   Thumb Code    56  stm32f4xx_hal_tim.o(.text)
    HAL_TIM_OC_Stop                          0x08005ad1   Thumb Code    86  stm32f4xx_hal_tim.o(.text)
    HAL_TIM_OC_Start_IT                      0x08005b27   Thumb Code   134  stm32f4xx_hal_tim.o(.text)
    HAL_TIM_OC_Stop_IT                       0x08005bad   Thumb Code   138  stm32f4xx_hal_tim.o(.text)
    HAL_TIM_PWM_PulseFinishedCallback        0x08005c37   Thumb Code     2  stm32f4xx_hal_tim.o(.text)
    TIM_DMADelayPulseCplt                    0x08005c39   Thumb Code    66  stm32f4xx_hal_tim.o(.text)
    HAL_TIM_OC_Start_DMA                     0x08005c7b   Thumb Code   252  stm32f4xx_hal_tim.o(.text)
    HAL_TIM_OC_Stop_DMA                      0x08005d77   Thumb Code   144  stm32f4xx_hal_tim.o(.text)
    HAL_TIM_PWM_MspInit                      0x08005e07   Thumb Code     2  stm32f4xx_hal_tim.o(.text)
    HAL_TIM_PWM_Init                         0x08005e09   Thumb Code    54  stm32f4xx_hal_tim.o(.text)
    HAL_TIM_PWM_MspDeInit                    0x08005e3f   Thumb Code     2  stm32f4xx_hal_tim.o(.text)
    HAL_TIM_PWM_DeInit                       0x08005e41   Thumb Code    56  stm32f4xx_hal_tim.o(.text)
    HAL_TIM_PWM_Start                        0x08005e79   Thumb Code    56  stm32f4xx_hal_tim.o(.text)
    HAL_TIM_PWM_Stop                         0x08005eb1   Thumb Code    92  stm32f4xx_hal_tim.o(.text)
    HAL_TIM_PWM_Start_IT                     0x08005f0d   Thumb Code   108  stm32f4xx_hal_tim.o(.text)
    HAL_TIM_PWM_Stop_IT                      0x08005f79   Thumb Code   138  stm32f4xx_hal_tim.o(.text)
    HAL_TIM_PWM_Start_DMA                    0x08006003   Thumb Code   252  stm32f4xx_hal_tim.o(.text)
    HAL_TIM_PWM_Stop_DMA                     0x080060ff   Thumb Code   144  stm32f4xx_hal_tim.o(.text)
    HAL_TIM_IC_Init                          0x08006191   Thumb Code    54  stm32f4xx_hal_tim.o(.text)
    HAL_TIM_IC_DeInit                        0x080061c9   Thumb Code    56  stm32f4xx_hal_tim.o(.text)
    HAL_TIM_IC_Start                         0x08006201   Thumb Code    26  stm32f4xx_hal_tim.o(.text)
    HAL_TIM_IC_Stop                          0x0800621b   Thumb Code    44  stm32f4xx_hal_tim.o(.text)
    HAL_TIM_IC_Start_IT                      0x08006247   Thumb Code    78  stm32f4xx_hal_tim.o(.text)
    HAL_TIM_IC_Stop_IT                       0x08006295   Thumb Code    96  stm32f4xx_hal_tim.o(.text)
    HAL_TIM_IC_CaptureCallback               0x080062f5   Thumb Code     2  stm32f4xx_hal_tim.o(.text)
    TIM_DMACaptureCplt                       0x080062f7   Thumb Code    66  stm32f4xx_hal_tim.o(.text)
    HAL_TIM_IC_Start_DMA                     0x08006339   Thumb Code   216  stm32f4xx_hal_tim.o(.text)
    HAL_TIM_IC_Stop_DMA                      0x08006411   Thumb Code   102  stm32f4xx_hal_tim.o(.text)
    HAL_TIM_OnePulse_MspInit                 0x08006477   Thumb Code     2  stm32f4xx_hal_tim.o(.text)
    HAL_TIM_OnePulse_Init                    0x08006479   Thumb Code    74  stm32f4xx_hal_tim.o(.text)
    HAL_TIM_OnePulse_MspDeInit               0x080064c3   Thumb Code     2  stm32f4xx_hal_tim.o(.text)
    HAL_TIM_OnePulse_DeInit                  0x080064c5   Thumb Code    56  stm32f4xx_hal_tim.o(.text)
    HAL_TIM_OnePulse_Start                   0x080064fd   Thumb Code    58  stm32f4xx_hal_tim.o(.text)
    HAL_TIM_OnePulse_Stop                    0x08006537   Thumb Code    98  stm32f4xx_hal_tim.o(.text)
    HAL_TIM_OnePulse_Start_IT                0x08006599   Thumb Code    78  stm32f4xx_hal_tim.o(.text)
    HAL_TIM_OnePulse_Stop_IT                 0x080065e7   Thumb Code   118  stm32f4xx_hal_tim.o(.text)
    HAL_TIM_Encoder_MspInit                  0x0800665d   Thumb Code     2  stm32f4xx_hal_tim.o(.text)
    HAL_TIM_Encoder_Init                     0x0800665f   Thumb Code   172  stm32f4xx_hal_tim.o(.text)
    HAL_TIM_Encoder_MspDeInit                0x0800670b   Thumb Code     2  stm32f4xx_hal_tim.o(.text)
    HAL_TIM_Encoder_DeInit                   0x0800670d   Thumb Code    56  stm32f4xx_hal_tim.o(.text)
    HAL_TIM_Encoder_Start                    0x08006745   Thumb Code    58  stm32f4xx_hal_tim.o(.text)
    HAL_TIM_Encoder_Stop                     0x0800677f   Thumb Code    78  stm32f4xx_hal_tim.o(.text)
    HAL_TIM_Encoder_Start_IT                 0x080067cd   Thumb Code   102  stm32f4xx_hal_tim.o(.text)
    HAL_TIM_Encoder_Stop_IT                  0x08006833   Thumb Code   126  stm32f4xx_hal_tim.o(.text)
    HAL_TIM_Encoder_Start_DMA                0x080068b1   Thumb Code   284  stm32f4xx_hal_tim.o(.text)
    HAL_TIM_Encoder_Stop_DMA                 0x080069cd   Thumb Code   126  stm32f4xx_hal_tim.o(.text)
    HAL_TIM_TriggerCallback                  0x08006a4b   Thumb Code     2  stm32f4xx_hal_tim.o(.text)
    HAL_TIM_OC_DelayElapsedCallback          0x08006a4d   Thumb Code     2  stm32f4xx_hal_tim.o(.text)
    HAL_TIM_IRQHandler                       0x08006a4f   Thumb Code   364  stm32f4xx_hal_tim.o(.text)
    TIM_OC2_SetConfig                        0x08006bbb   Thumb Code   104  stm32f4xx_hal_tim.o(.text)
    HAL_TIM_OC_ConfigChannel                 0x08006c23   Thumb Code   250  stm32f4xx_hal_tim.o(.text)
    TIM_TI1_SetConfig                        0x08006d1d   Thumb Code   144  stm32f4xx_hal_tim.o(.text)
    HAL_TIM_IC_ConfigChannel                 0x08006dad   Thumb Code   344  stm32f4xx_hal_tim.o(.text)
    HAL_TIM_PWM_ConfigChannel                0x08006f05   Thumb Code   386  stm32f4xx_hal_tim.o(.text)
    HAL_TIM_OnePulse_ConfigChannel           0x08007087   Thumb Code   294  stm32f4xx_hal_tim.o(.text)
    HAL_TIM_DMABurst_WriteStart              0x080071bd   Thumb Code   312  stm32f4xx_hal_tim.o(.text)
    HAL_TIM_DMABurst_WriteStop               0x080072f5   Thumb Code   100  stm32f4xx_hal_tim.o(.text)
    HAL_TIM_DMABurst_ReadStart               0x08007359   Thumb Code   312  stm32f4xx_hal_tim.o(.text)
    HAL_TIM_DMABurst_ReadStop                0x08007491   Thumb Code   100  stm32f4xx_hal_tim.o(.text)
    HAL_TIM_GenerateEvent                    0x080074f5   Thumb Code    38  stm32f4xx_hal_tim.o(.text)
    HAL_TIM_ConfigOCrefClear                 0x0800751b   Thumb Code   174  stm32f4xx_hal_tim.o(.text)
    HAL_TIM_ConfigClockSource                0x080075c9   Thumb Code   468  stm32f4xx_hal_tim.o(.text)
    HAL_TIM_ConfigTI1Input                   0x0800779d   Thumb Code    16  stm32f4xx_hal_tim.o(.text)
    HAL_TIM_SlaveConfigSynchronization       0x08007885   Thumb Code    66  stm32f4xx_hal_tim.o(.text)
    HAL_TIM_SlaveConfigSynchronization_IT    0x080078c7   Thumb Code    66  stm32f4xx_hal_tim.o(.text)
    HAL_TIM_ReadCapturedValue                0x08007909   Thumb Code    68  stm32f4xx_hal_tim.o(.text)
    HAL_TIM_Base_GetState                    0x0800794d   Thumb Code     6  stm32f4xx_hal_tim.o(.text)
    HAL_TIM_OC_GetState                      0x08007953   Thumb Code     6  stm32f4xx_hal_tim.o(.text)
    HAL_TIM_PWM_GetState                     0x08007959   Thumb Code     6  stm32f4xx_hal_tim.o(.text)
    HAL_TIM_IC_GetState                      0x0800795f   Thumb Code     6  stm32f4xx_hal_tim.o(.text)
    HAL_TIM_OnePulse_GetState                0x08007965   Thumb Code     6  stm32f4xx_hal_tim.o(.text)
    HAL_TIM_Encoder_GetState                 0x0800796b   Thumb Code     6  stm32f4xx_hal_tim.o(.text)
    HAL_TIMEx_HallSensor_MspInit             0x080079d1   Thumb Code     2  stm32f4xx_hal_tim_ex.o(.text)
    HAL_TIMEx_HallSensor_Init                0x080079d3   Thumb Code   178  stm32f4xx_hal_tim_ex.o(.text)
    HAL_TIMEx_HallSensor_MspDeInit           0x08007a85   Thumb Code     2  stm32f4xx_hal_tim_ex.o(.text)
    HAL_TIMEx_HallSensor_DeInit              0x08007a87   Thumb Code    56  stm32f4xx_hal_tim_ex.o(.text)
    HAL_TIMEx_HallSensor_Start               0x08007abf   Thumb Code    28  stm32f4xx_hal_tim_ex.o(.text)
    HAL_TIMEx_HallSensor_Stop                0x08007adb   Thumb Code    46  stm32f4xx_hal_tim_ex.o(.text)
    HAL_TIMEx_HallSensor_Start_IT            0x08007b09   Thumb Code    38  stm32f4xx_hal_tim_ex.o(.text)
    HAL_TIMEx_HallSensor_Stop_IT             0x08007b2f   Thumb Code    56  stm32f4xx_hal_tim_ex.o(.text)
    HAL_TIMEx_HallSensor_Start_DMA           0x08007b67   Thumb Code   104  stm32f4xx_hal_tim_ex.o(.text)
    HAL_TIMEx_HallSensor_Stop_DMA            0x08007bcf   Thumb Code    56  stm32f4xx_hal_tim_ex.o(.text)
    HAL_TIMEx_OCN_Start                      0x08007c07   Thumb Code    36  stm32f4xx_hal_tim_ex.o(.text)
    HAL_TIMEx_OCN_Stop                       0x08007c2b   Thumb Code    68  stm32f4xx_hal_tim_ex.o(.text)
    HAL_TIMEx_OCN_Start_IT                   0x08007c6f   Thumb Code    98  stm32f4xx_hal_tim_ex.o(.text)
    HAL_TIMEx_OCN_Stop_IT                    0x08007cd1   Thumb Code   136  stm32f4xx_hal_tim_ex.o(.text)
    HAL_TIMEx_OCN_Start_DMA                  0x08007d59   Thumb Code   228  stm32f4xx_hal_tim_ex.o(.text)
    HAL_TIMEx_OCN_Stop_DMA                   0x08007e3d   Thumb Code   126  stm32f4xx_hal_tim_ex.o(.text)
    HAL_TIMEx_PWMN_Start                     0x08007ebb   Thumb Code    36  stm32f4xx_hal_tim_ex.o(.text)
    HAL_TIMEx_PWMN_Stop                      0x08007edf   Thumb Code    68  stm32f4xx_hal_tim_ex.o(.text)
    HAL_TIMEx_PWMN_Start_IT                  0x08007f23   Thumb Code   110  stm32f4xx_hal_tim_ex.o(.text)
    HAL_TIMEx_PWMN_Stop_IT                   0x08007f91   Thumb Code   136  stm32f4xx_hal_tim_ex.o(.text)
    HAL_TIMEx_PWMN_Start_DMA                 0x08008019   Thumb Code   228  stm32f4xx_hal_tim_ex.o(.text)
    HAL_TIMEx_PWMN_Stop_DMA                  0x080080fd   Thumb Code   126  stm32f4xx_hal_tim_ex.o(.text)
    HAL_TIMEx_OnePulseN_Start                0x0800817b   Thumb Code    26  stm32f4xx_hal_tim_ex.o(.text)
    HAL_TIMEx_OnePulseN_Stop                 0x08008195   Thumb Code    68  stm32f4xx_hal_tim_ex.o(.text)
    HAL_TIMEx_OnePulseN_Start_IT             0x080081d9   Thumb Code    46  stm32f4xx_hal_tim_ex.o(.text)
    HAL_TIMEx_OnePulseN_Stop_IT              0x08008207   Thumb Code    88  stm32f4xx_hal_tim_ex.o(.text)
    HAL_TIMEx_ConfigCommutationEvent         0x0800825f   Thumb Code   102  stm32f4xx_hal_tim_ex.o(.text)
    HAL_TIMEx_ConfigCommutationEvent_IT      0x080082c5   Thumb Code   112  stm32f4xx_hal_tim_ex.o(.text)
    HAL_TIMEx_CommutationCallback            0x08008335   Thumb Code     2  stm32f4xx_hal_tim_ex.o(.text)
    TIMEx_DMACommutationCplt                 0x08008337   Thumb Code    16  stm32f4xx_hal_tim_ex.o(.text)
    HAL_TIMEx_ConfigCommutationEvent_DMA     0x08008347   Thumb Code   126  stm32f4xx_hal_tim_ex.o(.text)
    HAL_TIMEx_MasterConfigSynchronization    0x080083c5   Thumb Code   108  stm32f4xx_hal_tim_ex.o(.text)
    HAL_TIMEx_ConfigBreakDeadTime            0x08008431   Thumb Code    86  stm32f4xx_hal_tim_ex.o(.text)
    HAL_TIMEx_RemapConfig                    0x08008487   Thumb Code    32  stm32f4xx_hal_tim_ex.o(.text)
    HAL_TIMEx_BreakCallback                  0x080084a7   Thumb Code     2  stm32f4xx_hal_tim_ex.o(.text)
    HAL_TIMEx_HallSensor_GetState            0x080084a9   Thumb Code     6  stm32f4xx_hal_tim_ex.o(.text)
    HAL_USART_MspInit                        0x080084c9   Thumb Code     2  stm32f4xx_hal_usart.o(.text)
    HAL_USART_Init                           0x080084cb   Thumb Code   398  stm32f4xx_hal_usart.o(.text)
    HAL_USART_MspDeInit                      0x08008659   Thumb Code     2  stm32f4xx_hal_usart.o(.text)
    HAL_USART_DeInit                         0x0800865b   Thumb Code    48  stm32f4xx_hal_usart.o(.text)
    HAL_USART_Transmit                       0x08008731   Thumb Code   178  stm32f4xx_hal_usart.o(.text)
    HAL_USART_Receive                        0x080087e3   Thumb Code   232  stm32f4xx_hal_usart.o(.text)
    HAL_USART_TransmitReceive                0x080088cb   Thumb Code   270  stm32f4xx_hal_usart.o(.text)
    HAL_USART_Transmit_IT                    0x080089d9   Thumb Code    64  stm32f4xx_hal_usart.o(.text)
    HAL_USART_Receive_IT                     0x08008a19   Thumb Code    92  stm32f4xx_hal_usart.o(.text)
    HAL_USART_TransmitReceive_IT             0x08008a75   Thumb Code   106  stm32f4xx_hal_usart.o(.text)
    HAL_USART_ErrorCallback                  0x08008adf   Thumb Code     2  stm32f4xx_hal_usart.o(.text)
    HAL_USART_TxHalfCpltCallback             0x08008aff   Thumb Code     2  stm32f4xx_hal_usart.o(.text)
    HAL_USART_TxCpltCallback                 0x08008b0b   Thumb Code     2  stm32f4xx_hal_usart.o(.text)
    HAL_USART_Transmit_DMA                   0x08008b4f   Thumb Code   124  stm32f4xx_hal_usart.o(.text)
    HAL_USART_RxHalfCpltCallback             0x08008bcb   Thumb Code     2  stm32f4xx_hal_usart.o(.text)
    HAL_USART_TxRxCpltCallback               0x08008bd7   Thumb Code     2  stm32f4xx_hal_usart.o(.text)
    HAL_USART_RxCpltCallback                 0x08008bd9   Thumb Code     2  stm32f4xx_hal_usart.o(.text)
    HAL_USART_Receive_DMA                    0x08008c35   Thumb Code   148  stm32f4xx_hal_usart.o(.text)
    HAL_USART_TransmitReceive_DMA            0x08008cc9   Thumb Code   178  stm32f4xx_hal_usart.o(.text)
    HAL_USART_DMAPause                       0x08008d7b   Thumb Code    38  stm32f4xx_hal_usart.o(.text)
    HAL_USART_DMAResume                      0x08008da1   Thumb Code    38  stm32f4xx_hal_usart.o(.text)
    HAL_USART_DMAStop                        0x08008dc7   Thumb Code    54  stm32f4xx_hal_usart.o(.text)
    HAL_USART_IRQHandler                     0x08008ee9   Thumb Code   556  stm32f4xx_hal_usart.o(.text)
    HAL_USART_GetState                       0x08009115   Thumb Code     6  stm32f4xx_hal_usart.o(.text)
    HAL_USART_GetError                       0x0800911b   Thumb Code     4  stm32f4xx_hal_usart.o(.text)
    USB_CoreInit                             0x08009121   Thumb Code   206  stm32f4xx_ll_usb.o(.text)
    USB_EnableGlobalInt                      0x080091ef   Thumb Code    12  stm32f4xx_ll_usb.o(.text)
    USB_DisableGlobalInt                     0x080091fb   Thumb Code    12  stm32f4xx_ll_usb.o(.text)
    USB_SetCurrentMode                       0x08009207   Thumb Code    46  stm32f4xx_ll_usb.o(.text)
    USB_FlushRxFifo                          0x08009235   Thumb Code    30  stm32f4xx_ll_usb.o(.text)
    USB_FlushTxFifo                          0x08009253   Thumb Code    34  stm32f4xx_ll_usb.o(.text)
    USB_SetDevSpeed                          0x08009275   Thumb Code    14  stm32f4xx_ll_usb.o(.text)
    USB_DevInit                              0x08009283   Thumb Code   362  stm32f4xx_ll_usb.o(.text)
    USB_GetDevSpeed                          0x080093ed   Thumb Code    58  stm32f4xx_ll_usb.o(.text)
    USB_ActivateEndpoint                     0x08009427   Thumb Code   140  stm32f4xx_ll_usb.o(.text)
    USB_ActivateDedicatedEndpoint            0x080094b3   Thumb Code   254  stm32f4xx_ll_usb.o(.text)
    USB_DeactivateEndpoint                   0x080095b1   Thumb Code   122  stm32f4xx_ll_usb.o(.text)
    USB_DeactivateDedicatedEndpoint          0x0800962b   Thumb Code    82  stm32f4xx_ll_usb.o(.text)
    USB_WritePacket                          0x0800967d   Thumb Code    46  stm32f4xx_ll_usb.o(.text)
    USB_EPStartXfer                          0x080096ab   Thumb Code   606  stm32f4xx_ll_usb.o(.text)
    USB_EP0StartXfer                         0x08009909   Thumb Code   340  stm32f4xx_ll_usb.o(.text)
    USB_ReadPacket                           0x08009a5d   Thumb Code    34  stm32f4xx_ll_usb.o(.text)
    USB_EPSetStall                           0x08009a7f   Thumb Code   100  stm32f4xx_ll_usb.o(.text)
    USB_EPClearStall                         0x08009ae3   Thumb Code   102  stm32f4xx_ll_usb.o(.text)
    USB_StopDevice                           0x08009b49   Thumb Code    90  stm32f4xx_ll_usb.o(.text)
    USB_SetDevAddress                        0x08009ba3   Thumb Code    34  stm32f4xx_ll_usb.o(.text)
    USB_DevConnect                           0x08009bc5   Thumb Code    24  stm32f4xx_ll_usb.o(.text)
    USB_DevDisconnect                        0x08009bdd   Thumb Code    24  stm32f4xx_ll_usb.o(.text)
    USB_ReadInterrupts                       0x08009bf5   Thumb Code     8  stm32f4xx_ll_usb.o(.text)
    USB_ReadDevAllOutEpInterrupt             0x08009bfd   Thumb Code    14  stm32f4xx_ll_usb.o(.text)
    USB_ReadDevAllInEpInterrupt              0x08009c0b   Thumb Code    14  stm32f4xx_ll_usb.o(.text)
    USB_ReadDevOutEPInterrupt                0x08009c19   Thumb Code    16  stm32f4xx_ll_usb.o(.text)
    USB_ReadDevInEPInterrupt                 0x08009c29   Thumb Code    30  stm32f4xx_ll_usb.o(.text)
    USB_ClearInterrupts                      0x08009c47   Thumb Code     8  stm32f4xx_ll_usb.o(.text)
    USB_GetMode                              0x08009c4f   Thumb Code     8  stm32f4xx_ll_usb.o(.text)
    USB_ActivateSetup                        0x08009c57   Thumb Code    52  stm32f4xx_ll_usb.o(.text)
    USB_EP0_OutStart                         0x08009c8b   Thumb Code    62  stm32f4xx_ll_usb.o(.text)
    USB_DriveVbus                            0x08009cc9   Thumb Code    54  stm32f4xx_ll_usb.o(.text)
    USB_HostInit                             0x08009cff   Thumb Code   216  stm32f4xx_ll_usb.o(.text)
    USB_InitFSLSPClkSel                      0x08009dd7   Thumb Code    54  stm32f4xx_ll_usb.o(.text)
    USB_ResetPort                            0x08009e0d   Thumb Code    42  stm32f4xx_ll_usb.o(.text)
    USB_GetHostSpeed                         0x08009e37   Thumb Code    16  stm32f4xx_ll_usb.o(.text)
    USB_GetCurrentFrame                      0x08009e47   Thumb Code     8  stm32f4xx_ll_usb.o(.text)
    USB_HC_Init                              0x08009e4f   Thumb Code   230  stm32f4xx_ll_usb.o(.text)
    USB_DoPing                               0x08009f35   Thumb Code    96  stm32f4xx_ll_usb.o(.text)
    USB_HC_StartXfer                         0x08009f95   Thumb Code   464  stm32f4xx_ll_usb.o(.text)
    USB_HC_ReadInterrupt                     0x0800a165   Thumb Code    10  stm32f4xx_ll_usb.o(.text)
    USB_HC_Halt                              0x0800a16f   Thumb Code   392  stm32f4xx_ll_usb.o(.text)
    USB_StopHost                             0x0800a2f7   Thumb Code   228  stm32f4xx_ll_usb.o(.text)
    TM_DELAY_Init                            0x0800a3e5   Thumb Code    52  tm_stm32_delay.o(.text)
    TM_DELAY_TimerCreate                     0x0800a419   Thumb Code    84  tm_stm32_delay.o(.text)
    TM_DELAY_TimerDelete                     0x0800a46d   Thumb Code   100  tm_stm32_delay.o(.text)
    TM_DELAY_TimerStop                       0x0800a4d1   Thumb Code    10  tm_stm32_delay.o(.text)
    TM_DELAY_TimerStart                      0x0800a4db   Thumb Code    10  tm_stm32_delay.o(.text)
    TM_DELAY_TimerReset                      0x0800a4e5   Thumb Code     6  tm_stm32_delay.o(.text)
    TM_DELAY_TimerAutoReloadCommand          0x0800a4eb   Thumb Code    18  tm_stm32_delay.o(.text)
    TM_DELAY_TimerAutoReloadValue            0x0800a4fd   Thumb Code     4  tm_stm32_delay.o(.text)
    TM_DELAY_1msHandler                      0x0800a501   Thumb Code     2  tm_stm32_delay.o(.text)
    HAL_IncTick                              0x0800a503   Thumb Code   104  tm_stm32_delay.o(.text)
    HAL_GetTick                              0x0800a56b   Thumb Code     6  tm_stm32_delay.o(.text)
    HAL_Delay                                0x0800a571   Thumb Code    50  tm_stm32_delay.o(.text)
    TM_GPIO_GetPortSource                    0x0800a5b5   Thumb Code    10  tm_stm32_gpio.o(.text)
    TM_GPIO_INT_Init                         0x0800a5bf   Thumb Code   160  tm_stm32_gpio.o(.text)
    TM_GPIO_INT_EnableClock                  0x0800a65f   Thumb Code    20  tm_stm32_gpio.o(.text)
    TM_GPIO_Init                             0x0800a673   Thumb Code    44  tm_stm32_gpio.o(.text)
    TM_GPIO_InitAlternate                    0x0800a69f   Thumb Code   124  tm_stm32_gpio.o(.text)
    TM_GPIO_DeInit                           0x0800a71b   Thumb Code    70  tm_stm32_gpio.o(.text)
    TM_GPIO_SetPinAsInput                    0x0800a761   Thumb Code    42  tm_stm32_gpio.o(.text)
    TM_GPIO_SetPinAsOutput                   0x0800a78b   Thumb Code    48  tm_stm32_gpio.o(.text)
    TM_GPIO_SetPinAsAnalog                   0x0800a7bb   Thumb Code    42  tm_stm32_gpio.o(.text)
    TM_GPIO_SetPinAsAlternate                0x0800a7e5   Thumb Code    50  tm_stm32_gpio.o(.text)
    TM_GPIO_SetPullResistor                  0x0800a817   Thumb Code    54  tm_stm32_gpio.o(.text)
    TM_GPIO_Lock                             0x0800a84d   Thumb Code    16  tm_stm32_gpio.o(.text)
    TM_GPIO_GetPinSource                     0x0800a85d   Thumb Code    20  tm_stm32_gpio.o(.text)
    TM_GPIO_INT_DisableClock                 0x0800a871   Thumb Code    22  tm_stm32_gpio.o(.text)
    TM_GPIO_GetUsedPins                      0x0800a887   Thumb Code    16  tm_stm32_gpio.o(.text)
    TM_GPIO_GetFreePins                      0x0800a897   Thumb Code    20  tm_stm32_gpio.o(.text)
    TM_RCC_InitSystem                        0x0800a8b5   Thumb Code   130  tm_stm32_rcc.o(.text)
    TM_RTC_GetUnixTimeStamp                  0x0800a941   Thumb Code   232  tm_stm32_rtc.o(.text)
    TM_RTC_GetDateTime                       0x0800aa29   Thumb Code   108  tm_stm32_rtc.o(.text)
    TM_RTC_Init                              0x0800aa95   Thumb Code   252  tm_stm32_rtc.o(.text)
    TM_RTC_SetDateTime                       0x0800ab91   Thumb Code   484  tm_stm32_rtc.o(.text)
    TM_RTC_SetDateTimeString                 0x0800ad75   Thumb Code   358  tm_stm32_rtc.o(.text)
    TM_RTC_GetDaysInMonth                    0x0800aedb   Thumb Code    86  tm_stm32_rtc.o(.text)
    TM_RTC_GetDaysInYear                     0x0800af31   Thumb Code    60  tm_stm32_rtc.o(.text)
    TM_RTC_Interrupts                        0x0800af6d   Thumb Code   184  tm_stm32_rtc.o(.text)
    TM_RTC_GetDateTimeFromUnix               0x0800b025   Thumb Code   328  tm_stm32_rtc.o(.text)
    TM_RTC_EnableAlarm                       0x0800b16d   Thumb Code   158  tm_stm32_rtc.o(.text)
    TM_RTC_DisableAlarm                      0x0800b20b   Thumb Code    30  tm_stm32_rtc.o(.text)
    TM_RTC_WriteBackupRegister               0x0800b229   Thumb Code    16  tm_stm32_rtc.o(.text)
    TM_RTC_ReadBackupRegister                0x0800b239   Thumb Code    16  tm_stm32_rtc.o(.text)
    TM_RTC_WakeupHandler                     0x0800b249   Thumb Code     2  tm_stm32_rtc.o(.text)
    TM_RTC_AlarmAHandler                     0x0800b24b   Thumb Code     2  tm_stm32_rtc.o(.text)
    TM_RTC_AlarmBHandler                     0x0800b24d   Thumb Code     2  tm_stm32_rtc.o(.text)
    RTC_WKUP_IRQHandler                      0x0800b24f   Thumb Code    42  tm_stm32_rtc.o(.text)
    RTC_Alarm_IRQHandler                     0x0800b279   Thumb Code    66  tm_stm32_rtc.o(.text)
    TM_USB_Init                              0x0800b2c5   Thumb Code     4  tm_stm32_usb.o(.text)
    TM_USB_InitFS                            0x0800b2c9   Thumb Code   116  tm_stm32_usb.o(.text)
    TM_USB_InitHS                            0x0800b33d   Thumb Code     4  tm_stm32_usb.o(.text)
    TM_USB_DriveVBUSCallback                 0x0800b341   Thumb Code    22  tm_stm32_usb.o(.text)
    OTG_FS_IRQHandler                        0x0800b357   Thumb Code     6  tm_stm32_usb.o(.text)
    TM_USBH_Init                             0x0800b3a1   Thumb Code    26  tm_stm32_usb_host.o(.text)
    TM_USBH_Start                            0x0800b3bb   Thumb Code    20  tm_stm32_usb_host.o(.text)
    TM_USBH_Restart                          0x0800b3cf   Thumb Code    20  tm_stm32_usb_host.o(.text)
    TM_USBH_Stop                             0x0800b3e3   Thumb Code    20  tm_stm32_usb_host.o(.text)
    TM_USBH_Process                          0x0800b3f7   Thumb Code    20  tm_stm32_usb_host.o(.text)
    TM_USBH_IsConnected                      0x0800b40b   Thumb Code    20  tm_stm32_usb_host.o(.text)
    TM_USBH_IsDeviceReady                    0x0800b41f   Thumb Code    32  tm_stm32_usb_host.o(.text)
    TM_USBH_GetUSBPointer                    0x0800b43f   Thumb Code     8  tm_stm32_usb_host.o(.text)
    TM_USBH_GetVID                           0x0800b447   Thumb Code    12  tm_stm32_usb_host.o(.text)
    TM_USBH_GetPID                           0x0800b453   Thumb Code    12  tm_stm32_usb_host.o(.text)
    TM_USBH_MSC_Init                         0x0800b471   Thumb Code    22  tm_stm32_usb_host_msc.o(.text)
    TM_USBH_MSC_IsConnected                  0x0800b487   Thumb Code    28  tm_stm32_usb_host_msc.o(.text)
    TM_USBH_MSC_IsReady                      0x0800b4a3   Thumb Code    20  tm_stm32_usb_host_msc.o(.text)
    main                                     0x0800b4c1   Thumb Code   258  main.o(.text)
    NMI_Handler                              0x0800b5ed   Thumb Code     2  stm32fxxx_it.o(.text)
    HardFault_Handler                        0x0800b5ef   Thumb Code     2  stm32fxxx_it.o(.text)
    MemManage_Handler                        0x0800b5f1   Thumb Code     2  stm32fxxx_it.o(.text)
    BusFault_Handler                         0x0800b5f3   Thumb Code     2  stm32fxxx_it.o(.text)
    UsageFault_Handler                       0x0800b5f5   Thumb Code     2  stm32fxxx_it.o(.text)
    SVC_Handler                              0x0800b5f7   Thumb Code     2  stm32fxxx_it.o(.text)
    DebugMon_Handler                         0x0800b5f9   Thumb Code     2  stm32fxxx_it.o(.text)
    PendSV_Handler                           0x0800b5fb   Thumb Code     2  stm32fxxx_it.o(.text)
    TimingDelay_Decrement                    0x0800b5fd   Thumb Code     2  stm32fxxx_it.o(.text)
    SysTick_Handler                          0x0800b5ff   Thumb Code     4  stm32fxxx_it.o(.text)
    TIM3_IRQHandler                          0x0800b603   Thumb Code   110  stm32fxxx_it.o(.text)
    CAN2_RX0_IRQHandler                      0x0800b671   Thumb Code    26  stm32fxxx_it.o(.text)
    CAN2_TX_IRQHandler                       0x0800b68b   Thumb Code     6  stm32fxxx_it.o(.text)
    USART2_IRQHandler                        0x0800b691   Thumb Code    18  stm32fxxx_it.o(.text)
    USART3_IRQHandler                        0x0800b6a3   Thumb Code    18  stm32fxxx_it.o(.text)
    TIM5_IRQHandler                          0x0800b6b5   Thumb Code   368  stm32fxxx_it.o(.text)
    EXTI9_5_IRQHandler                       0x0800b825   Thumb Code     8  stm32fxxx_it.o(.text)
    SystemInit                               0x0800b865   Thumb Code    64  system_stm32f4xx.o(.text)
    SystemCoreClockUpdate                    0x0800b8a5   Thumb Code   110  system_stm32f4xx.o(.text)
    HAL_MspInit                              0x0800b93d   Thumb Code    22  stm32f4xx_hal_msp.o(.text)
    HAL_TIM_Base_MspInit                     0x0800b953   Thumb Code   188  stm32f4xx_hal_msp.o(.text)
    HAL_TIM_Base_MspDeInit                   0x0800ba0f   Thumb Code   116  stm32f4xx_hal_msp.o(.text)
    HAL_TIM_IC_MspInit                       0x0800ba83   Thumb Code    80  stm32f4xx_hal_msp.o(.text)
    HAL_TIM_IC_MspDeInit                     0x0800bad3   Thumb Code    44  stm32f4xx_hal_msp.o(.text)
    HAL_CAN_MspInit                          0x0800baff   Thumb Code   120  stm32f4xx_hal_msp.o(.text)
    HAL_CAN_MspDeInit                        0x0800bb77   Thumb Code    60  stm32f4xx_hal_msp.o(.text)
    HAL_UART_MspInit                         0x0800bbb3   Thumb Code    96  stm32f4xx_hal_msp.o(.text)
    HAL_UART_MspDeInit                       0x0800bc13   Thumb Code    54  stm32f4xx_hal_msp.o(.text)
    SystemClock_Config                       0x0800bc59   Thumb Code   162  config.o(.text)
    MX_GPIO_Init                             0x0800bcfb   Thumb Code   150  config.o(.text)
    TIM3_Init                                0x0800bd91   Thumb Code    60  config.o(.text)
    TIM5_Init                                0x0800bdcd   Thumb Code    66  config.o(.text)
    MX_CAN2_Init                             0x0800be0f   Thumb Code    82  config.o(.text)
    UARTTelemetry_Config                     0x0800be61   Thumb Code    52  config.o(.text)
    RxTelemetry                              0x0800be95   Thumb Code   678  config.o(.text)
    USB_Config                               0x0800c13b   Thumb Code    28  config.o(.text)
    RTC_Config                               0x0800c157   Thumb Code    60  config.o(.text)
    SendfromADQ                              0x0800c1b1   Thumb Code    28  funciones.o(.text)
    USBWrite1024Block                        0x0800c1cd   Thumb Code   372  funciones.o(.text)
    USBReadBlock                             0x0800c341   Thumb Code  1074  funciones.o(.text)
    USBReadBlock2                            0x0800c773   Thumb Code   104  funciones.o(.text)
    ReadCanData                              0x0800c7db   Thumb Code    46  funciones.o(.text)
    ReadIMUCanData                           0x0800c809   Thumb Code    48  funciones.o(.text)
    Read64CanData                            0x0800c839   Thumb Code    68  funciones.o(.text)
    GEAR_calc                                0x0800c87d   Thumb Code   146  funciones.o(.text)
    ReadCANData                              0x0800c90f   Thumb Code  1578  funciones.o(.text)
    processByte                              0x0800cf39   Thumb Code   422  funciones.o(.text)
    GPS_Config                               0x0800d0df   Thumb Code    52  funciones.o(.text)
    DisableAllInterrupts                     0x0800d113   Thumb Code    42  funciones.o(.text)
    EnableAllInterrupts                      0x0800d13d   Thumb Code    42  funciones.o(.text)
    fputc                                    0x0800d167   Thumb Code     2  funciones.o(.text)
    Variables_to_0                           0x0800d169   Thumb Code    36  funciones.o(.text)
    processTelemetryByte                     0x0800d18d   Thumb Code     6  funciones.o(.text)
    sendFunction                             0x0800d193   Thumb Code    30  funciones.o(.text)
    SendCanData                              0x0800d1b1   Thumb Code    14  funciones.o(.text)
    addCan16Bit                              0x0800d1bf   Thumb Code    36  funciones.o(.text)
    sendDNData                               0x0800d1e3   Thumb Code    92  funciones.o(.text)
    sendBBData                               0x0800d23f   Thumb Code    96  funciones.o(.text)
    SaveTimes                                0x0800d29f   Thumb Code    46  funciones.o(.text)
    USB_ReadData                             0x0800d2cd   Thumb Code   504  funciones.o(.text)
    sendFlagsData                            0x0800d4c5   Thumb Code   100  funciones.o(.text)
    sendTCData                               0x0800d529   Thumb Code   152  funciones.o(.text)
    sendTelemetry                            0x0800d5c1   Thumb Code   510  funciones.o(.text)
    sendASData                               0x0800d7bf   Thumb Code    76  funciones.o(.text)
    sendFTSData                              0x0800d80b   Thumb Code   158  funciones.o(.text)
    sendLCSData                              0x0800d8a9   Thumb Code   540  funciones.o(.text)
    processPacket                            0x0800dac5   Thumb Code   760  funciones.o(.text)
    sendBeaconDetected                       0x0800ddbd   Thumb Code    38  funciones.o(.text)
    LedForAero                               0x0800dde3   Thumb Code    34  funciones.o(.text)
    addCan32Bit                              0x0800de05   Thumb Code   132  funciones.o(.text)
    readBackupSRAM                           0x0800de89   Thumb Code    60  funciones.o(.text)
    addStarttobuffer                         0x0800ded9   Thumb Code   124  usbfunc.o(.text)
    addStoptobuffer                          0x0800df55   Thumb Code   108  usbfunc.o(.text)
    add8tobuffer                             0x0800dfc1   Thumb Code    30  usbfunc.o(.text)
    add16tobuffer                            0x0800dfdf   Thumb Code    60  usbfunc.o(.text)
    add32tobuffer                            0x0800e01b   Thumb Code   104  usbfunc.o(.text)
    addGPStobuffer                           0x0800e083   Thumb Code     2  usbfunc.o(.text)
    addGPS0tobuffer                          0x0800e085   Thumb Code    44  usbfunc.o(.text)
    ALE_Buffer_Putc                          0x0800e0b1   Thumb Code    60  ale_buffer.o(.text)
    ALE_Buffer_write                         0x0800e0ed   Thumb Code    96  ale_buffer.o(.text)
    ALE_Buffer_Puts                          0x0800e14d   Thumb Code    88  ale_buffer.o(.text)
    ALE_Buffer_init                          0x0800e1a5   Thumb Code    30  ale_buffer.o(.text)
    ALE_Buffer_Getc                          0x0800e1c3   Thumb Code    54  ale_buffer.o(.text)
    ALE_Buffer_Read                          0x0800e1f9   Thumb Code    84  ale_buffer.o(.text)
    ALE_Buffer_Flush                         0x0800e24d   Thumb Code    28  ale_buffer.o(.text)
    buffer_append_int32                      0x0800e269   Thumb Code    60  ale_buffer.o(.text)
    buffer_append_int16                      0x0800e2a5   Thumb Code    32  ale_buffer.o(.text)
    buffer_append_float32                    0x0800e2c5   Thumb Code    72  ale_buffer.o(.text)
    buffer2float16                           0x0800e30d   Thumb Code    46  ale_buffer.o(.text)
    buffer2float32                           0x0800e33b   Thumb Code    86  ale_buffer.o(.text)
    buffer2int32                             0x0800e391   Thumb Code    46  ale_buffer.o(.text)
    buffer2int16                             0x0800e3bf   Thumb Code    26  ale_buffer.o(.text)
    ALE_GPIO_Clk_Enable                      0x0800e3d9   Thumb Code   220  ale_gpio_f4.o(.text)
    ALE_GPIO_Clk_Disable                     0x0800e4b5   Thumb Code   150  ale_gpio_f4.o(.text)
    ALE_USART_Putc                           0x0800e551   Thumb Code    58  ale_usart_f4.o(.text)
    ALE_USART_IRQHandler                     0x0800e58b   Thumb Code   122  ale_usart_f4.o(.text)
    ALE_USART_Puts                           0x0800e605   Thumb Code    78  ale_usart_f4.o(.text)
    ALE_USART_Init                           0x0800e653   Thumb Code   584  ale_usart_f4.o(.text)
    ALE_USART_Process_Byte                   0x0800e89b   Thumb Code    66  ale_usart_f4.o(.text)
    crc16                                    0x0800e8ed   Thumb Code    48  crc.o(.text)
    packet_init                              0x0800e921   Thumb Code    16  packet.o(.text)
    packet_send_packet                       0x0800e931   Thumb Code   106  packet.o(.text)
    packet_timerfunc                         0x0800e99b   Thumb Code    48  packet.o(.text)
    packet_process_byte                      0x0800e9cb   Thumb Code   198  packet.o(.text)
    TIM_CUT_Set                              0x0800ea95   Thumb Code    14  tc.o(.text)
    TC_CUTV1                                 0x0800eaa3   Thumb Code   158  tc.o(.text)
    TC_ON                                    0x0800eb41   Thumb Code   188  tc.o(.text)
    TIM4_IRQHandler                          0x0800ebfd   Thumb Code    76  tc.o(.text)
    TIM6_DAC_IRQHandler                      0x0800ec49   Thumb Code    58  tc.o(.text)
    EXTI1_IRQHandler                         0x0800ec83   Thumb Code   126  tc.o(.text)
    EXTI2_IRQHandler                         0x0800ed01   Thumb Code    90  tc.o(.text)
    TC_GPIO_Config                           0x0800ed5b   Thumb Code    62  tc.o(.text)
    TC_TIM_Config                            0x0800ed99   Thumb Code    62  tc.o(.text)
    FTS_TIM_Config                           0x0800edd7   Thumb Code    46  tc.o(.text)
    FTS_GPIO_Config                          0x0800ee05   Thumb Code   142  tc.o(.text)
    HAL_HCD_MspInit                          0x0800eed5   Thumb Code    14  usbh_conf.o(.text)
    HAL_HCD_MspDeInit                        0x0800eee3   Thumb Code    32  usbh_conf.o(.text)
    HAL_HCD_SOF_Callback                     0x0800ef03   Thumb Code     8  usbh_conf.o(.text)
    HAL_HCD_Connect_Callback                 0x0800ef0b   Thumb Code     8  usbh_conf.o(.text)
    HAL_HCD_Disconnect_Callback              0x0800ef13   Thumb Code     8  usbh_conf.o(.text)
    HAL_HCD_HC_NotifyURBChange_Callback      0x0800ef1b   Thumb Code     2  usbh_conf.o(.text)
    USBH_LL_Init                             0x0800ef1d   Thumb Code    72  usbh_conf.o(.text)
    USBH_LL_DeInit                           0x0800ef65   Thumb Code    14  usbh_conf.o(.text)
    USBH_LL_Start                            0x0800ef73   Thumb Code    14  usbh_conf.o(.text)
    USBH_LL_Stop                             0x0800ef81   Thumb Code    14  usbh_conf.o(.text)
    USBH_LL_GetSpeed                         0x0800ef8f   Thumb Code    32  usbh_conf.o(.text)
    USBH_LL_ResetPort                        0x0800efaf   Thumb Code    14  usbh_conf.o(.text)
    USBH_LL_GetLastXferSize                  0x0800efbd   Thumb Code     8  usbh_conf.o(.text)
    USBH_LL_OpenPipe                         0x0800efc5   Thumb Code    34  usbh_conf.o(.text)
    USBH_LL_ClosePipe                        0x0800efe7   Thumb Code    14  usbh_conf.o(.text)
    USBH_LL_SubmitURB                        0x0800eff5   Thumb Code    30  usbh_conf.o(.text)
    USBH_LL_GetURBState                      0x0800f013   Thumb Code     8  usbh_conf.o(.text)
    USBH_LL_DriverVBUS                       0x0800f01b   Thumb Code    20  usbh_conf.o(.text)
    USBH_LL_SetToggle                        0x0800f02f   Thumb Code    38  usbh_conf.o(.text)
    USBH_LL_GetToggle                        0x0800f055   Thumb Code    42  usbh_conf.o(.text)
    USBH_Delay                               0x0800f07f   Thumb Code     4  usbh_conf.o(.text)
    USBH_Init                                0x0800f091   Thumb Code    68  usbh_core.o(.text)
    USBH_DeInit                              0x0800f0d5   Thumb Code    32  usbh_core.o(.text)
    USBH_RegisterClass                       0x0800f0f5   Thumb Code    76  usbh_core.o(.text)
    USBH_SelectInterface                     0x0800f141   Thumb Code   120  usbh_core.o(.text)
    USBH_GetActiveClass                      0x0800f1b9   Thumb Code     6  usbh_core.o(.text)
    USBH_FindInterface                       0x0800f1bf   Thumb Code    82  usbh_core.o(.text)
    USBH_FindInterfaceIndex                  0x0800f211   Thumb Code    56  usbh_core.o(.text)
    USBH_Start                               0x0800f249   Thumb Code    20  usbh_core.o(.text)
    USBH_Stop                                0x0800f25d   Thumb Code    36  usbh_core.o(.text)
    USBH_ReEnumerate                         0x0800f281   Thumb Code    62  usbh_core.o(.text)
    USBH_Process                             0x0800f2bf   Thumb Code  1330  usbh_core.o(.text)
    USBH_LL_SetTimer                         0x0800f7f1   Thumb Code     6  usbh_core.o(.text)
    USBH_LL_IncTimer                         0x0800f7f7   Thumb Code    32  usbh_core.o(.text)
    USBH_LL_Connect                          0x0800f817   Thumb Code    40  usbh_core.o(.text)
    USBH_LL_Disconnect                       0x0800f83f   Thumb Code    70  usbh_core.o(.text)
    USBH_CtlReq                              0x0800fa39   Thumb Code   432  usbh_ctlreq.o(.text)
    USBH_GetDescriptor                       0x0800fbe9   Thumb Code    60  usbh_ctlreq.o(.text)
    USBH_Get_DevDesc                         0x0800fc25   Thumb Code   160  usbh_ctlreq.o(.text)
    USBH_GetNextDesc                         0x0800fcc5   Thumb Code    14  usbh_ctlreq.o(.text)
    USBH_Get_CfgDesc                         0x0800fcd3   Thumb Code   282  usbh_ctlreq.o(.text)
    USBH_Get_StringDesc                      0x0800fded   Thumb Code    88  usbh_ctlreq.o(.text)
    USBH_SetAddress                          0x0800fe45   Thumb Code    26  usbh_ctlreq.o(.text)
    USBH_SetCfg                              0x0800fe5f   Thumb Code    26  usbh_ctlreq.o(.text)
    USBH_SetInterface                        0x0800fe79   Thumb Code    26  usbh_ctlreq.o(.text)
    USBH_ClrFeature                          0x0800fe93   Thumb Code    28  usbh_ctlreq.o(.text)
    USBH_CtlSendSetup                        0x0800fecd   Thumb Code    34  usbh_ioreq.o(.text)
    USBH_CtlSendData                         0x0800feef   Thumb Code    46  usbh_ioreq.o(.text)
    USBH_CtlReceiveData                      0x0800ff1d   Thumb Code    38  usbh_ioreq.o(.text)
    USBH_BulkSendData                        0x0800ff43   Thumb Code    46  usbh_ioreq.o(.text)
    USBH_BulkReceiveData                     0x0800ff71   Thumb Code    38  usbh_ioreq.o(.text)
    USBH_InterruptReceiveData                0x0800ff97   Thumb Code    38  usbh_ioreq.o(.text)
    USBH_InterruptSendData                   0x0800ffbd   Thumb Code    38  usbh_ioreq.o(.text)
    USBH_IsocReceiveData                     0x0800ffe3   Thumb Code    40  usbh_ioreq.o(.text)
    USBH_IsocSendData                        0x0801000b   Thumb Code    40  usbh_ioreq.o(.text)
    USBH_OpenPipe                            0x08010033   Thumb Code    28  usbh_pipes.o(.text)
    USBH_ClosePipe                           0x0801004f   Thumb Code    10  usbh_pipes.o(.text)
    USBH_AllocPipe                           0x08010059   Thumb Code    56  usbh_pipes.o(.text)
    USBH_FreePipe                            0x08010091   Thumb Code    24  usbh_pipes.o(.text)
    USBH_MSC_IsReady                         0x08010905   Thumb Code    20  usbh_msc.o(.text)
    USBH_MSC_GetMaxLUN                       0x08010919   Thumb Code    28  usbh_msc.o(.text)
    USBH_MSC_UnitIsReady                     0x08010935   Thumb Code    40  usbh_msc.o(.text)
    USBH_MSC_GetLUNInfo                      0x0801095d   Thumb Code    62  usbh_msc.o(.text)
    USBH_MSC_Read                            0x0801099b   Thumb Code   154  usbh_msc.o(.text)
    USBH_MSC_Write                           0x08010a35   Thumb Code   154  usbh_msc.o(.text)
    USBH_MSC_BOT_REQ_Reset                   0x08010b11   Thumb Code    22  usbh_msc_bot.o(.text)
    USBH_MSC_BOT_REQ_GetMaxLUN               0x08010b27   Thumb Code    22  usbh_msc_bot.o(.text)
    USBH_MSC_BOT_Init                        0x08010b3d   Thumb Code    28  usbh_msc_bot.o(.text)
    USBH_MSC_BOT_Process                     0x08010b59   Thumb Code   520  usbh_msc_bot.o(.text)
    USBH_MSC_SCSI_TestUnitReady              0x08010d6d   Thumb Code    80  usbh_msc_scsi.o(.text)
    USBH_MSC_SCSI_ReadCapacity               0x08010dbd   Thumb Code   136  usbh_msc_scsi.o(.text)
    USBH_MSC_SCSI_Inquiry                    0x08010e45   Thumb Code   210  usbh_msc_scsi.o(.text)
    USBH_MSC_SCSI_RequestSense               0x08010f17   Thumb Code   156  usbh_msc_scsi.o(.text)
    USBH_MSC_SCSI_Write                      0x08010fb3   Thumb Code   134  usbh_msc_scsi.o(.text)
    USBH_MSC_SCSI_Read                       0x08011039   Thumb Code   136  usbh_msc_scsi.o(.text)
    TM_FATFS_AddDriver                       0x080110c1   Thumb Code    42  diskio.o(.text)
    disk_initialize                          0x080110eb   Thumb Code    20  diskio.o(.text)
    disk_status                              0x080110ff   Thumb Code    22  diskio.o(.text)
    disk_read                                0x08011115   Thumb Code    50  diskio.o(.text)
    disk_write                               0x08011147   Thumb Code    50  diskio.o(.text)
    disk_ioctl                               0x08011179   Thumb Code    28  diskio.o(.text)
    get_fattime                              0x08011195   Thumb Code     4  diskio.o(.text)
    TM_FATFS_SD_SDIO_disk_initialize         0x08011199   Thumb Code     4  diskio.o(.text)
    TM_FATFS_SD_disk_initialize              0x0801119d   Thumb Code     4  diskio.o(.text)
    TM_FATFS_USBHS_disk_initialize           0x080111a5   Thumb Code     4  diskio.o(.text)
    TM_FATFS_SDRAM_disk_initialize           0x080111a9   Thumb Code     4  diskio.o(.text)
    TM_FATFS_SPI_FLASH_disk_initialize       0x080111ad   Thumb Code     4  diskio.o(.text)
    TM_FATFS_SD_SDIO_disk_status             0x080111b1   Thumb Code     4  diskio.o(.text)
    TM_FATFS_SD_disk_status                  0x080111b5   Thumb Code     4  diskio.o(.text)
    TM_FATFS_USBHS_disk_status               0x080111bd   Thumb Code     4  diskio.o(.text)
    TM_FATFS_SDRAM_disk_status               0x080111c1   Thumb Code     4  diskio.o(.text)
    TM_FATFS_SPI_FLASH_disk_status           0x080111c5   Thumb Code     4  diskio.o(.text)
    TM_FATFS_SD_SDIO_disk_ioctl              0x080111c9   Thumb Code     4  diskio.o(.text)
    TM_FATFS_SD_disk_ioctl                   0x080111cd   Thumb Code     4  diskio.o(.text)
    TM_FATFS_USBHS_disk_ioctl                0x080111d5   Thumb Code     4  diskio.o(.text)
    TM_FATFS_SDRAM_disk_ioctl                0x080111d9   Thumb Code     4  diskio.o(.text)
    TM_FATFS_SPI_FLASH_disk_ioctl            0x080111dd   Thumb Code     4  diskio.o(.text)
    TM_FATFS_SD_SDIO_disk_read               0x080111e1   Thumb Code     4  diskio.o(.text)
    TM_FATFS_SD_disk_read                    0x080111e5   Thumb Code     4  diskio.o(.text)
    TM_FATFS_USBHS_disk_read                 0x080111ed   Thumb Code     4  diskio.o(.text)
    TM_FATFS_SDRAM_disk_read                 0x080111f1   Thumb Code     4  diskio.o(.text)
    TM_FATFS_SPI_FLASH_disk_read             0x080111f5   Thumb Code     4  diskio.o(.text)
    TM_FATFS_SD_SDIO_disk_write              0x080111f9   Thumb Code     4  diskio.o(.text)
    TM_FATFS_SD_disk_write                   0x080111fd   Thumb Code     4  diskio.o(.text)
    TM_FATFS_USBHS_disk_write                0x08011205   Thumb Code     4  diskio.o(.text)
    TM_FATFS_SDRAM_disk_write                0x08011209   Thumb Code     4  diskio.o(.text)
    TM_FATFS_SPI_FLASH_disk_write            0x0801120d   Thumb Code     4  diskio.o(.text)
    f_mount                                  0x080131d9   Thumb Code   118  ff.o(.text)
    f_open                                   0x0801324f   Thumb Code   968  ff.o(.text)
    f_read                                   0x08013617   Thumb Code   478  ff.o(.text)
    f_write                                  0x080137f5   Thumb Code   568  ff.o(.text)
    f_sync                                   0x08013a2d   Thumb Code   462  ff.o(.text)
    f_close                                  0x08013bfb   Thumb Code    86  ff.o(.text)
    f_chdrive                                0x08013c51   Thumb Code    24  ff.o(.text)
    f_chdir                                  0x08013c69   Thumb Code   202  ff.o(.text)
    f_getcwd                                 0x08013d33   Thumb Code   366  ff.o(.text)
    f_lseek                                  0x08013ea1   Thumb Code   852  ff.o(.text)
    f_opendir                                0x080141f5   Thumb Code   264  ff.o(.text)
    f_closedir                               0x080142fd   Thumb Code    78  ff.o(.text)
    f_readdir                                0x0801434b   Thumb Code   112  ff.o(.text)
    f_findnext                               0x080143bb   Thumb Code   154  ff.o(.text)
    f_findfirst                              0x08014455   Thumb Code    30  ff.o(.text)
    f_stat                                   0x08014473   Thumb Code    98  ff.o(.text)
    f_getfree                                0x080144d5   Thumb Code   318  ff.o(.text)
    f_truncate                               0x08014613   Thumb Code   200  ff.o(.text)
    f_unlink                                 0x080146db   Thumb Code   330  ff.o(.text)
    f_mkdir                                  0x08014825   Thumb Code   506  ff.o(.text)
    f_rename                                 0x08014a1f   Thumb Code   502  ff.o(.text)
    f_getlabel                               0x08014c15   Thumb Code   274  ff.o(.text)
    f_setlabel                               0x08014d27   Thumb Code   510  ff.o(.text)
    f_expand                                 0x08014f25   Thumb Code   390  ff.o(.text)
    f_forward                                0x080150ab   Thumb Code   350  ff.o(.text)
    f_mkfs                                   0x08015209   Thumb Code  2900  ff.o(.text)
    f_gets                                   0x08015d5d   Thumb Code    74  ff.o(.text)
    f_putc                                   0x08015da7   Thumb Code    70  ff.o(.text)
    f_puts                                   0x08015ded   Thumb Code   122  ff.o(.text)
    f_printf                                 0x08015e67   Thumb Code  1030  ff.o(.text)
    ff_memalloc                              0x08016749   Thumb Code     4  syscall.o(.text)
    ff_memfree                               0x0801674d   Thumb Code     4  syscall.o(.text)
    ff_convert                               0x08016751   Thumb Code    58  unicode.o(.text)
    ff_wtoupper                              0x0801678b   Thumb Code    78  unicode.o(.text)
    TM_FATFS_USBFS_disk_initialize           0x080167e5   Thumb Code     4  fatfs_usb.o(.text)
    TM_FATFS_USBFS_disk_status               0x080167e9   Thumb Code    40  fatfs_usb.o(.text)
    TM_FATFS_USBFS_disk_read                 0x08016811   Thumb Code   178  fatfs_usb.o(.text)
    TM_FATFS_USBFS_disk_write                0x080168c3   Thumb Code   212  fatfs_usb.o(.text)
    TM_FATFS_USBFS_disk_ioctl                0x08016997   Thumb Code   116  fatfs_usb.o(.text)
    __aeabi_uldivmod                         0x08016a59   Thumb Code    98  uldiv.o(.text)
    __aeabi_llsl                             0x08016abb   Thumb Code    30  llshl.o(.text)
    _ll_shift_l                              0x08016abb   Thumb Code     0  llshl.o(.text)
    __aeabi_llsr                             0x08016ad9   Thumb Code    32  llushr.o(.text)
    _ll_ushift_r                             0x08016ad9   Thumb Code     0  llushr.o(.text)
    __aeabi_memcpy                           0x08016af9   Thumb Code    36  memcpya.o(.text)
    __aeabi_memcpy4                          0x08016af9   Thumb Code     0  memcpya.o(.text)
    __aeabi_memcpy8                          0x08016af9   Thumb Code     0  memcpya.o(.text)
    __aeabi_memset                           0x08016b1d   Thumb Code    14  memseta.o(.text)
    __aeabi_memset4                          0x08016b1d   Thumb Code     0  memseta.o(.text)
    __aeabi_memset8                          0x08016b1d   Thumb Code     0  memseta.o(.text)
    __aeabi_memclr                           0x08016b2b   Thumb Code     4  memseta.o(.text)
    __aeabi_memclr4                          0x08016b2b   Thumb Code     0  memseta.o(.text)
    __aeabi_memclr8                          0x08016b2b   Thumb Code     0  memseta.o(.text)
    _memset$wrapper                          0x08016b2f   Thumb Code    18  memseta.o(.text)
    __aeabi_dmul                             0x08016b41   Thumb Code   228  dmul.o(.text)
    __aeabi_f2d                              0x08016c25   Thumb Code    38  f2d.o(.text)
    __aeabi_uidiv                            0x08016c4b   Thumb Code     0  uidiv.o(.text)
    __aeabi_uidivmod                         0x08016c4b   Thumb Code    44  uidiv.o(.text)
    __I$use$fp                               0x08016c77   Thumb Code     0  iusefp.o(.text)
    _double_round                            0x08016c77   Thumb Code    30  depilogue.o(.text)
    _double_epilogue                         0x08016c95   Thumb Code   156  depilogue.o(.text)
    __aeabi_dadd                             0x08016d31   Thumb Code   322  dadd.o(.text)
    __aeabi_dsub                             0x08016e73   Thumb Code     6  dadd.o(.text)
    __aeabi_drsub                            0x08016e79   Thumb Code     6  dadd.o(.text)
    __aeabi_ddiv                             0x08016e7f   Thumb Code   222  ddiv.o(.text)
    __aeabi_d2ulz                            0x08016f5d   Thumb Code    48  dfixul.o(.text)
    __aeabi_cdrcmple                         0x08016f8d   Thumb Code    48  cdrcmple.o(.text)
    __scatterload                            0x08016fbd   Thumb Code    28  init.o(.text)
    __scatterload_rt2                        0x08016fbd   Thumb Code     0  init.o(.text)
    __aeabi_lasr                             0x08016fe1   Thumb Code    36  llsshr.o(.text)
    _ll_sshift_r                             0x08016fe1   Thumb Code     0  llsshr.o(.text)
    __decompress                             0x08017005   Thumb Code     0  __dczerorl2.o(.text)
    __decompress1                            0x08017005   Thumb Code    86  __dczerorl2.o(.text)
    __0printf                                0x0801705d   Thumb Code    22  printfa.o(i.__0printf)
    __1printf                                0x0801705d   Thumb Code     0  printfa.o(i.__0printf)
    __2printf                                0x0801705d   Thumb Code     0  printfa.o(i.__0printf)
    __c89printf                              0x0801705d   Thumb Code     0  printfa.o(i.__0printf)
    printf                                   0x0801705d   Thumb Code     0  printfa.o(i.__0printf)
    __0sprintf                               0x0801707d   Thumb Code    34  printfa.o(i.__0sprintf)
    __1sprintf                               0x0801707d   Thumb Code     0  printfa.o(i.__0sprintf)
    __2sprintf                               0x0801707d   Thumb Code     0  printfa.o(i.__0sprintf)
    __c89sprintf                             0x0801707d   Thumb Code     0  printfa.o(i.__0sprintf)
    sprintf                                  0x0801707d   Thumb Code     0  printfa.o(i.__0sprintf)
    __scatterload_copy                       0x080170a5   Thumb Code    14  handlers.o(i.__scatterload_copy)
    __scatterload_null                       0x080170b3   Thumb Code     2  handlers.o(i.__scatterload_null)
    __scatterload_zeroinit                   0x080170b5   Thumb Code    14  handlers.o(i.__scatterload_zeroinit)
    free                                     0x08017981   Thumb Code    76  malloc.o(i.free)
    malloc                                   0x080179d1   Thumb Code    92  malloc.o(i.malloc)
    APBAHBPrescTable                         0x08017a44   Data          16  stm32f4xx_hal_rcc.o(.constdata)
    AHBPrescTable                            0x08017a54   Data          16  system_stm32f4xx.o(.constdata)
    crc16_tab                                0x08017a64   Data         512  crc.o(.constdata)
    Gear_Cut_Time                            0x08017c64   Data          12  tc.o(.constdata)
    Gear_Actuator_Time                       0x08017c70   Data          12  tc.o(.constdata)
    Region$$Table$$Base                      0x08018660   Number         0  anon$$obj.o(Region$$Table)
    Region$$Table$$Limit                     0x08018680   Number         0  anon$$obj.o(Region$$Table)
    TM_Time2                                 0x20000008   Data           4  tm_stm32_delay.o(.data)
    TM_Time                                  0x2000000c   Data           4  tm_stm32_delay.o(.data)
    TPS                                      0x2000003c   Data           2  main.o(.data)
    ECT                                      0x2000003e   Data           2  main.o(.data)
    RPM                                      0x20000040   Data           2  main.o(.data)
    Lambda                                   0x20000042   Data           2  main.o(.data)
    MAP                                      0x20000044   Data           2  main.o(.data)
    MGP                                      0x20000046   Data           2  main.o(.data)
    OILSTATE                                 0x20000048   Data           2  main.o(.data)
    IAT                                      0x2000004a   Data           2  main.o(.data)
    BAT                                      0x2000004c   Data           2  main.o(.data)
    VSS                                      0x2000004e   Data           2  main.o(.data)
    ACCFUEL                                  0x20000050   Data           2  main.o(.data)
    beacon                                   0x20000052   Data           1  main.o(.data)
    SWSens                                   0x20000054   Data           2  main.o(.data)
    CurrentSens                              0x20000056   Data           2  main.o(.data)
    DamperRR                                 0x20000058   Data           2  main.o(.data)
    DamperRL                                 0x2000005a   Data           2  main.o(.data)
    batteryCurrent                           0x2000005c   Data           4  main.o(.data)
    BrakePressF                              0x20000060   Data           2  main.o(.data)
    BrakePressR                              0x20000062   Data           2  main.o(.data)
    DamperFR                                 0x20000064   Data           2  main.o(.data)
    DamperFL                                 0x20000066   Data           2  main.o(.data)
    TempRRTireO                              0x20000068   Data           2  main.o(.data)
    TempRRTireM                              0x2000006a   Data           2  main.o(.data)
    TempRRTireI                              0x2000006c   Data           2  main.o(.data)
    TempRRCal                                0x2000006e   Data           2  main.o(.data)
    TempRRDisc                               0x20000070   Data           2  main.o(.data)
    TempRLTireO                              0x20000072   Data           2  main.o(.data)
    TempRLTireM                              0x20000074   Data           2  main.o(.data)
    TempRLTireI                              0x20000076   Data           2  main.o(.data)
    TempRLCal                                0x20000078   Data           2  main.o(.data)
    TempRLDisc                               0x2000007a   Data           2  main.o(.data)
    TempFRTireO                              0x2000007c   Data           2  main.o(.data)
    TempFRTireM                              0x2000007e   Data           2  main.o(.data)
    TempFRTireI                              0x20000080   Data           2  main.o(.data)
    TempFRCal                                0x20000082   Data           2  main.o(.data)
    TempFRDisc                               0x20000084   Data           2  main.o(.data)
    TempFLTireO                              0x20000086   Data           2  main.o(.data)
    TempFLTireM                              0x20000088   Data           2  main.o(.data)
    TempFLTireI                              0x2000008a   Data           2  main.o(.data)
    TempFLCal                                0x2000008c   Data           2  main.o(.data)
    TempFLDisc                               0x2000008e   Data           2  main.o(.data)
    TempFLTireMO                             0x20000090   Data           2  main.o(.data)
    TempFLTireMI                             0x20000092   Data           2  main.o(.data)
    TempFRTireMO                             0x20000094   Data           2  main.o(.data)
    TempFRTireMI                             0x20000096   Data           2  main.o(.data)
    TempRLTireMO                             0x20000098   Data           2  main.o(.data)
    TempRLTireMI                             0x2000009a   Data           2  main.o(.data)
    TempRRTireMO                             0x2000009c   Data           2  main.o(.data)
    TempRRTireMI                             0x2000009e   Data           2  main.o(.data)
    Termopar_A                               0x200000a0   Data           2  main.o(.data)
    Termopar_B                               0x200000a2   Data           2  main.o(.data)
    Termopar_C                               0x200000a4   Data           2  main.o(.data)
    Termopar_D                               0x200000a6   Data           2  main.o(.data)
    Termopar_E                               0x200000a8   Data           2  main.o(.data)
    Termopar_F                               0x200000aa   Data           2  main.o(.data)
    Termopar_G                               0x200000ac   Data           2  main.o(.data)
    Termopar_H                               0x200000ae   Data           2  main.o(.data)
    Termopar_I                               0x200000b0   Data           2  main.o(.data)
    Termopar_J                               0x200000b2   Data           2  main.o(.data)
    Termopar_K                               0x200000b4   Data           2  main.o(.data)
    Termopar_L                               0x200000b6   Data           2  main.o(.data)
    cellVoltage1                             0x200000b8   Data           2  main.o(.data)
    cellVoltage2                             0x200000ba   Data           2  main.o(.data)
    cellVoltage3                             0x200000bc   Data           2  main.o(.data)
    cellVoltage4                             0x200000be   Data           2  main.o(.data)
    overTime                                 0x200000c0   Data           1  main.o(.data)
    lapTimeMilis                             0x200000c2   Data           2  main.o(.data)
    MOUNT                                    0x200000c4   Data           7  main.o(.data)
    OPEN                                     0x200000cb   Data          16  main.o(.data)
    ADQOK                                    0x200000db   Data           1  main.o(.data)
    USBRead                                  0x200000dc   Data           1  main.o(.data)
    telemetry_flag                           0x200000dd   Data           1  main.o(.data)
    SCHEDULER                                0x200000e0   Data           4  main.o(.data)
    configADQ                                0x200000e4   Data           4  main.o(.data)
    time                                     0x200000e8   Data           4  main.o(.data)
    RPMTARGET                                0x200000ec   Data           2  main.o(.data)
    LCSMAXSPEED                              0x200000f0   Data           4  main.o(.data)
    kp                                       0x200000f4   Data           4  main.o(.data)
    ki                                       0x200000f8   Data           4  main.o(.data)
    kd                                       0x200000fc   Data           4  main.o(.data)
    LCS_ON_OFF                               0x20000100   Data           1  main.o(.data)
    shift_cut                                0x20000102   Data           2  main.o(.data)
    shift_up                                 0x20000104   Data           2  main.o(.data)
    GEAR_UP_TIME_1                           0x20000106   Data           2  main.o(.data)
    GEAR_UP_TIME_2                           0x20000108   Data           2  main.o(.data)
    SPARK_CUT_TIME_1                         0x2000010a   Data           2  main.o(.data)
    SPARK_CUT_TIME_2                         0x2000010c   Data           2  main.o(.data)
    FTS_ON_OFF                               0x2000010e   Data           1  main.o(.data)
    BB_ON_OFF                                0x2000010f   Data           1  main.o(.data)
    RPM12                                    0x20000110   Data           2  main.o(.data)
    RPM23                                    0x20000112   Data           2  main.o(.data)
    RPM34                                    0x20000114   Data           2  main.o(.data)
    AS_ON_OFF                                0x20000116   Data           1  main.o(.data)
    fres                                     0x20000117   Data           1  main.o(.data)
    GEAR                                     0x20000118   Data           1  main.o(.data)
    speedRR_p                                0x2000011a   Data           2  main.o(.data)
    speedRL_p                                0x2000011c   Data           2  main.o(.data)
    speedFR_p                                0x2000011e   Data           2  main.o(.data)
    speedFL_p                                0x20000120   Data           2  main.o(.data)
    BB_Position                              0x20000122   Data           2  main.o(.data)
    BB_Target                                0x20000124   Data           2  main.o(.data)
    configFront                              0x20000126   Data           8  main.o(.data)
    configRear                               0x2000012e   Data           6  main.o(.data)
    configESW                                0x20000134   Data           6  main.o(.data)
    LastLapTick                              0x2000013c   Data           4  stm32fxxx_it.o(.data)
    LapTime                                  0x20000140   Data           4  stm32fxxx_it.o(.data)
    SystemCoreClock                          0x2000015c   Data           4  system_stm32f4xx.o(.data)
    i                                        0x20000168   Data           1  funciones.o(.data)
    LaserOnESW                               0x20000169   Data           1  funciones.o(.data)
    BeaconConfirmed                          0x2000016a   Data           1  funciones.o(.data)
    TC_Combustions                           0x20000170   Data           2  funciones.o(.data)
    TimeToStartDN                            0x20000172   Data           2  funciones.o(.data)
    TimeToHoldDN                             0x20000174   Data           2  funciones.o(.data)
    CounterStrike                            0x20000176   Data           2  funciones.o(.data)
    SR_target                                0x2000017c   Data           4  funciones.o(.data)
    GPS_RawData                              0x20000188   Data           8  funciones.o(.data)
    ShiftUP_ON                               0x20000190   Data           1  tc.o(.data)
    ShiftDN_ON                               0x20000191   Data           1  tc.o(.data)
    TC_CUT_ON                                0x20000192   Data           1  tc.o(.data)
    FTS_delay_ON                             0x20000193   Data           1  tc.o(.data)
    shift_up_req                             0x20000194   Data           1  tc.o(.data)
    shift_dn_req                             0x20000195   Data           1  tc.o(.data)
    TC_req                                   0x20000196   Data           1  tc.o(.data)
    TC_ON_OFF                                0x20000197   Data           1  tc.o(.data)
    SR_req                                   0x20000198   Data           2  tc.o(.data)
    SR_Raw                                   0x2000019a   Data           2  tc.o(.data)
    cut_time                                 0x2000019c   Data           4  tc.o(.data)
    TC_cut_time_req                          0x200001a0   Data           4  tc.o(.data)
    TC_flag                                  0x200001a4   Data           1  tc.o(.data)
    USBH_msc                                 0x200001a8   Data          32  usbh_msc.o(.data)
    FATFS_LowLevelDrivers                    0x200001c8   Data         180  diskio.o(.data)
    __stdout                                 0x20000280   Data           4  stdout.o(.data)
    __microlib_freelist                      0x20000284   Data           4  mvars.o(.data)
    __microlib_freelist_initialised          0x20000288   Data           4  mvars.o(.data)
    hUSBHost_FS                              0x200002f4   Data         928  tm_stm32_usb_host.o(.bss)
    htim3                                    0x20000694   Data          60  main.o(.bss)
    hcan2                                    0x200006d0   Data          64  main.o(.bss)
    RxMessage                                0x20000710   Data          36  main.o(.bss)
    TxMessage                                0x20000734   Data          28  main.o(.bss)
    htim5                                    0x20000750   Data          60  main.o(.bss)
    ahus                                     0x2000078c   Data         456  main.o(.bss)
    BUFF                                     0x20000954   Data        4104  main.o(.bss)
    GPS                                      0x2000195c   Data          44  main.o(.bss)
    hcan2Filter                              0x20001988   Data          40  main.o(.bss)
    huart3                                   0x200019b0   Data          68  main.o(.bss)
    huart2                                   0x200019f4   Data          68  main.o(.bss)
    htim4                                    0x20001a38   Data          60  main.o(.bss)
    htim6                                    0x20001a74   Data          60  main.o(.bss)
    ahus2                                    0x20001ab0   Data         456  main.o(.bss)
    FATFS_USB_FS                             0x20001c78   Data         584  main.o(.bss)
    fil                                      0x20001ec0   Data         600  main.o(.bss)
    RTCD                                     0x20002118   Data          16  main.o(.bss)
    IMU                                      0x20002128   Data          28  main.o(.bss)
    hhcd_FS                                  0x20002584   Data         664  usbh_conf.o(.bss)
    __heap_base                              0x200028e0   Data           0  startup_stm32f446xx.o(HEAP)
    __heap_limit                             0x200098e0   Data           0  startup_stm32f446xx.o(HEAP)
    __initial_sp                             0x2001e8e0   Data           0  startup_stm32f446xx.o(STACK)



==============================================================================

Memory Map of the image

  Image Entry point : 0x080001c5

  Load Region LR_IROM1 (Base: 0x08000000, Size: 0x0001890c, Max: 0x00080000, ABSOLUTE, COMPRESSED[0x00018740])

    Execution Region ER_IROM1 (Exec base: 0x08000000, Load base: 0x08000000, Size: 0x00018680, Max: 0x00080000, ABSOLUTE)

    Exec Addr    Load Addr    Size         Type   Attr      Idx    E Section Name        Object

    0x08000000   0x08000000   0x000001c4   Data   RO            3    RESET               startup_stm32f446xx.o
    0x080001c4   0x080001c4   0x00000000   Code   RO         2548  * .ARM.Collect$$$$00000000  mc_w.l(entry.o)
    0x080001c4   0x080001c4   0x00000004   Code   RO         2864    .ARM.Collect$$$$00000001  mc_w.l(entry2.o)
    0x080001c8   0x080001c8   0x00000004   Code   RO         2867    .ARM.Collect$$$$00000004  mc_w.l(entry5.o)
    0x080001cc   0x080001cc   0x00000000   Code   RO         2869    .ARM.Collect$$$$00000008  mc_w.l(entry7b.o)
    0x080001cc   0x080001cc   0x00000000   Code   RO         2871    .ARM.Collect$$$$0000000A  mc_w.l(entry8b.o)
    0x080001cc   0x080001cc   0x00000008   Code   RO         2872    .ARM.Collect$$$$0000000B  mc_w.l(entry9a.o)
    0x080001d4   0x080001d4   0x00000000   Code   RO         2874    .ARM.Collect$$$$0000000D  mc_w.l(entry10a.o)
    0x080001d4   0x080001d4   0x00000000   Code   RO         2876    .ARM.Collect$$$$0000000F  mc_w.l(entry11a.o)
    0x080001d4   0x080001d4   0x00000004   Code   RO         2865    .ARM.Collect$$$$00002712  mc_w.l(entry2.o)
    0x080001d8   0x080001d8   0x00000024   Code   RO            4    .text               startup_stm32f446xx.o
    0x080001fc   0x080001fc   0x00000170   Code   RO           13    .text               stm32f4xx_hal.o
    0x0800036c   0x0800036c   0x00000c18   Code   RO          262    .text               stm32f4xx_hal_can.o
    0x08000f84   0x08000f84   0x00000238   Code   RO          286    .text               stm32f4xx_hal_cortex.o
    0x080011bc   0x080011bc   0x000005bc   Code   RO          338    .text               stm32f4xx_hal_dma.o
    0x08001778   0x08001778   0x000003b4   Code   RO          405    .text               stm32f4xx_hal_gpio.o
    0x08001b2c   0x08001b2c   0x00000994   Code   RO          429    .text               stm32f4xx_hal_hcd.o
    0x080024c0   0x080024c0   0x000001e0   Code   RO          501    .text               stm32f4xx_hal_pwr.o
    0x080026a0   0x080026a0   0x00000348   Code   RO          525    .text               stm32f4xx_hal_pwr_ex.o
    0x080029e8   0x080029e8   0x0000093c   Code   RO          549    .text               stm32f4xx_hal_rcc.o
    0x08003324   0x08003324   0x00000edc   Code   RO          577    .text               stm32f4xx_hal_rcc_ex.o
    0x08004200   0x08004200   0x00000a0c   Code   RO          601    .text               stm32f4xx_hal_rtc.o
    0x08004c0c   0x08004c0c   0x00000b9e   Code   RO          626    .text               stm32f4xx_hal_rtc_ex.o
    0x080057aa   0x080057aa   0x00000002   PAD
    0x080057ac   0x080057ac   0x00002224   Code   RO          650    .text               stm32f4xx_hal_tim.o
    0x080079d0   0x080079d0   0x00000af8   Code   RO          675    .text               stm32f4xx_hal_tim_ex.o
    0x080084c8   0x080084c8   0x00000c56   Code   RO          723    .text               stm32f4xx_hal_usart.o
    0x0800911e   0x0800911e   0x00000002   PAD
    0x08009120   0x08009120   0x000012c4   Code   RO          747    .text               stm32f4xx_ll_usb.o
    0x0800a3e4   0x0800a3e4   0x000001d0   Code   RO          962    .text               tm_stm32_delay.o
    0x0800a5b4   0x0800a5b4   0x00000300   Code   RO         1121    .text               tm_stm32_gpio.o
    0x0800a8b4   0x0800a8b4   0x0000008c   Code   RO         1206    .text               tm_stm32_rcc.o
    0x0800a940   0x0800a940   0x00000984   Code   RO         1230    .text               tm_stm32_rtc.o
    0x0800b2c4   0x0800b2c4   0x000000b0   Code   RO         1289    .text               tm_stm32_usb.o
    0x0800b374   0x0800b374   0x000000fc   Code   RO         1405    .text               tm_stm32_usb_host.o
    0x0800b470   0x0800b470   0x00000050   Code   RO         1436    .text               tm_stm32_usb_host_msc.o
    0x0800b4c0   0x0800b4c0   0x0000012c   Code   RO         1482    .text               main.o
    0x0800b5ec   0x0800b5ec   0x00000278   Code   RO         1750    .text               stm32fxxx_it.o
    0x0800b864   0x0800b864   0x000000d8   Code   RO         1835    .text               system_stm32f4xx.o
    0x0800b93c   0x0800b93c   0x0000031c   Code   RO         1866    .text               stm32f4xx_hal_msp.o
    0x0800bc58   0x0800bc58   0x00000558   Code   RO         1890    .text               config.o
    0x0800c1b0   0x0800c1b0   0x00001d28   Code   RO         1919    .text               funciones.o
    0x0800ded8   0x0800ded8   0x000001d8   Code   RO         1952    .text               usbfunc.o
    0x0800e0b0   0x0800e0b0   0x00000328   Code   RO         1976    .text               ale_buffer.o
    0x0800e3d8   0x0800e3d8   0x00000178   Code   RO         1995    .text               ale_gpio_f4.o
    0x0800e550   0x0800e550   0x0000039c   Code   RO         2060    .text               ale_usart_f4.o
    0x0800e8ec   0x0800e8ec   0x00000034   Code   RO         2085    .text               crc.o
    0x0800e920   0x0800e920   0x00000174   Code   RO         2106    .text               packet.o
    0x0800ea94   0x0800ea94   0x00000440   Code   RO         2142    .text               tc.o
    0x0800eed4   0x0800eed4   0x000001bc   Code   RO         2173    .text               usbh_conf.o
    0x0800f090   0x0800f090   0x000009a8   Code   RO         2200    .text               usbh_core.o
    0x0800fa38   0x0800fa38   0x00000494   Code   RO         2225    .text               usbh_ctlreq.o
    0x0800fecc   0x0800fecc   0x00000166   Code   RO         2250    .text               usbh_ioreq.o
    0x08010032   0x08010032   0x00000076   Code   RO         2277    .text               usbh_pipes.o
    0x080100a8   0x080100a8   0x00000a68   Code   RO         2301    .text               usbh_msc.o
    0x08010b10   0x08010b10   0x0000025c   Code   RO         2338    .text               usbh_msc_bot.o
    0x08010d6c   0x08010d6c   0x00000354   Code   RO         2370    .text               usbh_msc_scsi.o
    0x080110c0   0x080110c0   0x00000158   Code   RO         2398    .text               diskio.o
    0x08011218   0x08011218   0x00005530   Code   RO         2437    .text               ff.o
    0x08016748   0x08016748   0x00000008   Code   RO         2458    .text               syscall.o
    0x08016750   0x08016750   0x00000094   Code   RO         2479    .text               unicode.o
    0x080167e4   0x080167e4   0x00000274   Code   RO         2499    .text               fatfs_usb.o
    0x08016a58   0x08016a58   0x00000062   Code   RO         2551    .text               mc_w.l(uldiv.o)
    0x08016aba   0x08016aba   0x0000001e   Code   RO         2553    .text               mc_w.l(llshl.o)
    0x08016ad8   0x08016ad8   0x00000020   Code   RO         2555    .text               mc_w.l(llushr.o)
    0x08016af8   0x08016af8   0x00000024   Code   RO         2557    .text               mc_w.l(memcpya.o)
    0x08016b1c   0x08016b1c   0x00000024   Code   RO         2559    .text               mc_w.l(memseta.o)
    0x08016b40   0x08016b40   0x000000e4   Code   RO         2856    .text               mf_w.l(dmul.o)
    0x08016c24   0x08016c24   0x00000026   Code   RO         2862    .text               mf_w.l(f2d.o)
    0x08016c4a   0x08016c4a   0x0000002c   Code   RO         2879    .text               mc_w.l(uidiv.o)
    0x08016c76   0x08016c76   0x00000000   Code   RO         2883    .text               mc_w.l(iusefp.o)
    0x08016c76   0x08016c76   0x000000ba   Code   RO         2884    .text               mf_w.l(depilogue.o)
    0x08016d30   0x08016d30   0x0000014e   Code   RO         2886    .text               mf_w.l(dadd.o)
    0x08016e7e   0x08016e7e   0x000000de   Code   RO         2888    .text               mf_w.l(ddiv.o)
    0x08016f5c   0x08016f5c   0x00000030   Code   RO         2890    .text               mf_w.l(dfixul.o)
    0x08016f8c   0x08016f8c   0x00000030   Code   RO         2892    .text               mf_w.l(cdrcmple.o)
    0x08016fbc   0x08016fbc   0x00000024   Code   RO         2894    .text               mc_w.l(init.o)
    0x08016fe0   0x08016fe0   0x00000024   Code   RO         2896    .text               mc_w.l(llsshr.o)
    0x08017004   0x08017004   0x00000056   Code   RO         2906    .text               mc_w.l(__dczerorl2.o)
    0x0801705a   0x0801705a   0x00000002   PAD
    0x0801705c   0x0801705c   0x00000020   Code   RO         2800    i.__0printf         mc_w.l(printfa.o)
    0x0801707c   0x0801707c   0x00000028   Code   RO         2802    i.__0sprintf        mc_w.l(printfa.o)
    0x080170a4   0x080170a4   0x0000000e   Code   RO         2900    i.__scatterload_copy  mc_w.l(handlers.o)
    0x080170b2   0x080170b2   0x00000002   Code   RO         2901    i.__scatterload_null  mc_w.l(handlers.o)
    0x080170b4   0x080170b4   0x0000000e   Code   RO         2902    i.__scatterload_zeroinit  mc_w.l(handlers.o)
    0x080170c2   0x080170c2   0x00000002   PAD
    0x080170c4   0x080170c4   0x00000184   Code   RO         2807    i._fp_digits        mc_w.l(printfa.o)
    0x08017248   0x08017248   0x000006dc   Code   RO         2808    i._printf_core      mc_w.l(printfa.o)
    0x08017924   0x08017924   0x00000024   Code   RO         2809    i._printf_post_padding  mc_w.l(printfa.o)
    0x08017948   0x08017948   0x0000002e   Code   RO         2810    i._printf_pre_padding  mc_w.l(printfa.o)
    0x08017976   0x08017976   0x0000000a   Code   RO         2812    i._sputc            mc_w.l(printfa.o)
    0x08017980   0x08017980   0x00000050   Code   RO         2828    i.free              mc_w.l(malloc.o)
    0x080179d0   0x080179d0   0x0000006c   Code   RO         2829    i.malloc            mc_w.l(malloc.o)
    0x08017a3c   0x08017a3c   0x00000008   Data   RO          339    .constdata          stm32f4xx_hal_dma.o
    0x08017a44   0x08017a44   0x00000010   Data   RO          550    .constdata          stm32f4xx_hal_rcc.o
    0x08017a54   0x08017a54   0x00000010   Data   RO         1836    .constdata          system_stm32f4xx.o
    0x08017a64   0x08017a64   0x00000200   Data   RO         2086    .constdata          crc.o
    0x08017c64   0x08017c64   0x00000018   Data   RO         2143    .constdata          tc.o
    0x08017c7c   0x08017c7c   0x000000e0   Data   RO         2439    .constdata          ff.o
    0x08017d5c   0x08017d5c   0x000008b8   Data   RO         2480    .constdata          unicode.o
    0x08018614   0x08018614   0x00000004   Data   RO         2302    .conststring        usbh_msc.o
    0x08018618   0x08018618   0x00000046   Data   RO         2440    .conststring        ff.o
    0x0801865e   0x0801865e   0x00000002   PAD
    0x08018660   0x08018660   0x00000020   Data   RO         2898    Region$$Table       anon$$obj.o


    Execution Region RW_IRAM1 (Exec base: 0x20000000, Load base: 0x08018680, Size: 0x0001e8e0, Max: 0x00020000, ABSOLUTE, COMPRESSED[0x000000c0])

    Exec Addr    Load Addr    Size         Type   Attr      Idx    E Section Name        Object

    0x20000000   COMPRESSED   0x00000004   Data   RW           14    .data               stm32f4xx_hal.o
    0x20000004   COMPRESSED   0x00000004   Data   RW          748    .data               stm32f4xx_ll_usb.o
    0x20000008   COMPRESSED   0x00000008   Data   RW          964    .data               tm_stm32_delay.o
    0x20000010   COMPRESSED   0x0000001c   Data   RW         1232    .data               tm_stm32_rtc.o
    0x2000002c   COMPRESSED   0x00000010   Data   RW         1407    .data               tm_stm32_usb_host.o
    0x2000003c   COMPRESSED   0x00000002   Data   RW         1497    .data               main.o
    0x2000003e   COMPRESSED   0x00000002   Data   RW         1498    .data               main.o
    0x20000040   COMPRESSED   0x00000002   Data   RW         1499    .data               main.o
    0x20000042   COMPRESSED   0x00000002   Data   RW         1500    .data               main.o
    0x20000044   COMPRESSED   0x00000002   Data   RW         1501    .data               main.o
    0x20000046   COMPRESSED   0x00000002   Data   RW         1502    .data               main.o
    0x20000048   COMPRESSED   0x00000002   Data   RW         1503    .data               main.o
    0x2000004a   COMPRESSED   0x00000002   Data   RW         1504    .data               main.o
    0x2000004c   COMPRESSED   0x00000002   Data   RW         1505    .data               main.o
    0x2000004e   COMPRESSED   0x00000002   Data   RW         1506    .data               main.o
    0x20000050   COMPRESSED   0x00000002   Data   RW         1507    .data               main.o
    0x20000052   COMPRESSED   0x00000001   Data   RW         1508    .data               main.o
    0x20000053   COMPRESSED   0x00000001   PAD
    0x20000054   COMPRESSED   0x00000002   Data   RW         1510    .data               main.o
    0x20000056   COMPRESSED   0x00000002   Data   RW         1511    .data               main.o
    0x20000058   COMPRESSED   0x00000002   Data   RW         1512    .data               main.o
    0x2000005a   COMPRESSED   0x00000002   Data   RW         1513    .data               main.o
    0x2000005c   COMPRESSED   0x00000004   Data   RW         1514    .data               main.o
    0x20000060   COMPRESSED   0x00000002   Data   RW         1515    .data               main.o
    0x20000062   COMPRESSED   0x00000002   Data   RW         1516    .data               main.o
    0x20000064   COMPRESSED   0x00000002   Data   RW         1517    .data               main.o
    0x20000066   COMPRESSED   0x00000002   Data   RW         1518    .data               main.o
    0x20000068   COMPRESSED   0x00000002   Data   RW         1519    .data               main.o
    0x2000006a   COMPRESSED   0x00000002   Data   RW         1520    .data               main.o
    0x2000006c   COMPRESSED   0x00000002   Data   RW         1521    .data               main.o
    0x2000006e   COMPRESSED   0x00000002   Data   RW         1522    .data               main.o
    0x20000070   COMPRESSED   0x00000002   Data   RW         1523    .data               main.o
    0x20000072   COMPRESSED   0x00000002   Data   RW         1524    .data               main.o
    0x20000074   COMPRESSED   0x00000002   Data   RW         1525    .data               main.o
    0x20000076   COMPRESSED   0x00000002   Data   RW         1526    .data               main.o
    0x20000078   COMPRESSED   0x00000002   Data   RW         1527    .data               main.o
    0x2000007a   COMPRESSED   0x00000002   Data   RW         1528    .data               main.o
    0x2000007c   COMPRESSED   0x00000002   Data   RW         1529    .data               main.o
    0x2000007e   COMPRESSED   0x00000002   Data   RW         1530    .data               main.o
    0x20000080   COMPRESSED   0x00000002   Data   RW         1531    .data               main.o
    0x20000082   COMPRESSED   0x00000002   Data   RW         1532    .data               main.o
    0x20000084   COMPRESSED   0x00000002   Data   RW         1533    .data               main.o
    0x20000086   COMPRESSED   0x00000002   Data   RW         1534    .data               main.o
    0x20000088   COMPRESSED   0x00000002   Data   RW         1535    .data               main.o
    0x2000008a   COMPRESSED   0x00000002   Data   RW         1536    .data               main.o
    0x2000008c   COMPRESSED   0x00000002   Data   RW         1537    .data               main.o
    0x2000008e   COMPRESSED   0x00000002   Data   RW         1538    .data               main.o
    0x20000090   COMPRESSED   0x00000002   Data   RW         1539    .data               main.o
    0x20000092   COMPRESSED   0x00000002   Data   RW         1540    .data               main.o
    0x20000094   COMPRESSED   0x00000002   Data   RW         1541    .data               main.o
    0x20000096   COMPRESSED   0x00000002   Data   RW         1542    .data               main.o
    0x20000098   COMPRESSED   0x00000002   Data   RW         1543    .data               main.o
    0x2000009a   COMPRESSED   0x00000002   Data   RW         1544    .data               main.o
    0x2000009c   COMPRESSED   0x00000002   Data   RW         1545    .data               main.o
    0x2000009e   COMPRESSED   0x00000002   Data   RW         1546    .data               main.o
    0x200000a0   COMPRESSED   0x00000002   Data   RW         1553    .data               main.o
    0x200000a2   COMPRESSED   0x00000002   Data   RW         1554    .data               main.o
    0x200000a4   COMPRESSED   0x00000002   Data   RW         1555    .data               main.o
    0x200000a6   COMPRESSED   0x00000002   Data   RW         1556    .data               main.o
    0x200000a8   COMPRESSED   0x00000002   Data   RW         1557    .data               main.o
    0x200000aa   COMPRESSED   0x00000002   Data   RW         1558    .data               main.o
    0x200000ac   COMPRESSED   0x00000002   Data   RW         1559    .data               main.o
    0x200000ae   COMPRESSED   0x00000002   Data   RW         1560    .data               main.o
    0x200000b0   COMPRESSED   0x00000002   Data   RW         1561    .data               main.o
    0x200000b2   COMPRESSED   0x00000002   Data   RW         1562    .data               main.o
    0x200000b4   COMPRESSED   0x00000002   Data   RW         1563    .data               main.o
    0x200000b6   COMPRESSED   0x00000002   Data   RW         1564    .data               main.o
    0x200000b8   COMPRESSED   0x00000002   Data   RW         1565    .data               main.o
    0x200000ba   COMPRESSED   0x00000002   Data   RW         1566    .data               main.o
    0x200000bc   COMPRESSED   0x00000002   Data   RW         1567    .data               main.o
    0x200000be   COMPRESSED   0x00000002   Data   RW         1568    .data               main.o
    0x200000c0   COMPRESSED   0x00000001   Data   RW         1569    .data               main.o
    0x200000c1   COMPRESSED   0x00000001   PAD
    0x200000c2   COMPRESSED   0x00000002   Data   RW         1570    .data               main.o
    0x200000c4   COMPRESSED   0x00000007   Data   RW         1571    .data               main.o
    0x200000cb   COMPRESSED   0x00000010   Data   RW         1572    .data               main.o
    0x200000db   COMPRESSED   0x00000001   Data   RW         1574    .data               main.o
    0x200000dc   COMPRESSED   0x0000000c   Data   RW         1575    .data               main.o
    0x200000e8   COMPRESSED   0x00000004   Data   RW         1577    .data               main.o
    0x200000ec   COMPRESSED   0x00000002   Data   RW         1579    .data               main.o
    0x200000ee   COMPRESSED   0x00000002   PAD
    0x200000f0   COMPRESSED   0x00000004   Data   RW         1580    .data               main.o
    0x200000f4   COMPRESSED   0x00000004   Data   RW         1581    .data               main.o
    0x200000f8   COMPRESSED   0x00000004   Data   RW         1582    .data               main.o
    0x200000fc   COMPRESSED   0x00000004   Data   RW         1583    .data               main.o
    0x20000100   COMPRESSED   0x00000001   Data   RW         1584    .data               main.o
    0x20000101   COMPRESSED   0x00000001   PAD
    0x20000102   COMPRESSED   0x00000002   Data   RW         1586    .data               main.o
    0x20000104   COMPRESSED   0x00000002   Data   RW         1587    .data               main.o
    0x20000106   COMPRESSED   0x00000002   Data   RW         1590    .data               main.o
    0x20000108   COMPRESSED   0x00000002   Data   RW         1591    .data               main.o
    0x2000010a   COMPRESSED   0x00000002   Data   RW         1592    .data               main.o
    0x2000010c   COMPRESSED   0x00000002   Data   RW         1593    .data               main.o
    0x2000010e   COMPRESSED   0x00000001   Data   RW         1594    .data               main.o
    0x2000010f   COMPRESSED   0x00000001   Data   RW         1595    .data               main.o
    0x20000110   COMPRESSED   0x00000002   Data   RW         1596    .data               main.o
    0x20000112   COMPRESSED   0x00000002   Data   RW         1597    .data               main.o
    0x20000114   COMPRESSED   0x00000002   Data   RW         1598    .data               main.o
    0x20000116   COMPRESSED   0x00000001   Data   RW         1599    .data               main.o
    0x20000117   COMPRESSED   0x00000001   Data   RW         1604    .data               main.o
    0x20000118   COMPRESSED   0x00000001   Data   RW         1605    .data               main.o
    0x20000119   COMPRESSED   0x00000001   PAD
    0x2000011a   COMPRESSED   0x00000002   Data   RW         1606    .data               main.o
    0x2000011c   COMPRESSED   0x00000002   Data   RW         1607    .data               main.o
    0x2000011e   COMPRESSED   0x00000002   Data   RW         1608    .data               main.o
    0x20000120   COMPRESSED   0x00000002   Data   RW         1609    .data               main.o
    0x20000122   COMPRESSED   0x00000002   Data   RW         1612    .data               main.o
    0x20000124   COMPRESSED   0x00000002   Data   RW         1613    .data               main.o
    0x20000126   COMPRESSED   0x00000008   Data   RW         1614    .data               main.o
    0x2000012e   COMPRESSED   0x00000006   Data   RW         1615    .data               main.o
    0x20000134   COMPRESSED   0x00000006   Data   RW         1616    .data               main.o
    0x2000013a   COMPRESSED   0x00000002   PAD
    0x2000013c   COMPRESSED   0x00000020   Data   RW         1751    .data               stm32fxxx_it.o
    0x2000015c   COMPRESSED   0x00000004   Data   RW         1837    .data               system_stm32f4xx.o
    0x20000160   COMPRESSED   0x00000008   Data   RW         1891    .data               config.o
    0x20000168   COMPRESSED   0x00000028   Data   RW         1920    .data               funciones.o
    0x20000190   COMPRESSED   0x00000014   Data   RW         2145    .data               tc.o
    0x200001a4   COMPRESSED   0x00000001   Data   RW         2146    .data               tc.o
    0x200001a5   COMPRESSED   0x00000003   PAD
    0x200001a8   COMPRESSED   0x00000020   Data   RW         2303    .data               usbh_msc.o
    0x200001c8   COMPRESSED   0x000000b4   Data   RW         2399    .data               diskio.o
    0x2000027c   COMPRESSED   0x00000004   Data   RW         2441    .data               ff.o
    0x20000280   COMPRESSED   0x00000004   Data   RW         2878    .data               mc_w.l(stdout.o)
    0x20000284   COMPRESSED   0x00000004   Data   RW         2881    .data               mc_w.l(mvars.o)
    0x20000288   COMPRESSED   0x00000004   Data   RW         2882    .data               mc_w.l(mvars.o)
    0x2000028c        -       0x00000018   Zero   RW          963    .bss                tm_stm32_delay.o
    0x200002a4        -       0x0000001a   Zero   RW         1122    .bss                tm_stm32_gpio.o
    0x200002be   COMPRESSED   0x00000002   PAD
    0x200002c0        -       0x00000034   Zero   RW         1231    .bss                tm_stm32_rtc.o
    0x200002f4        -       0x000003a0   Zero   RW         1406    .bss                tm_stm32_usb_host.o
    0x20000694        -       0x000012f4   Zero   RW         1483    .bss                main.o
    0x20001988        -       0x00000028   Zero   RW         1484    .bss                main.o
    0x200019b0        -       0x00000044   Zero   RW         1485    .bss                main.o
    0x200019f4        -       0x00000044   Zero   RW         1486    .bss                main.o
    0x20001a38        -       0x0000003c   Zero   RW         1488    .bss                main.o
    0x20001a74        -       0x0000003c   Zero   RW         1489    .bss                main.o
    0x20001ab0        -       0x000001c8   Zero   RW         1490    .bss                main.o
    0x20001c78        -       0x00000248   Zero   RW         1491    .bss                main.o
    0x20001ec0        -       0x00000258   Zero   RW         1493    .bss                main.o
    0x20002118        -       0x00000010   Zero   RW         1494    .bss                main.o
    0x20002128        -       0x0000001c   Zero   RW         1495    .bss                main.o
    0x20002144        -       0x00000440   Zero   RW         2107    .bss                packet.o
    0x20002584        -       0x00000298   Zero   RW         2174    .bss                usbh_conf.o
    0x2000281c        -       0x000000c4   Zero   RW         2438    .bss                ff.o
    0x200028e0        -       0x00007000   Zero   RW            2    HEAP                startup_stm32f446xx.o
    0x200098e0        -       0x00015000   Zero   RW            1    STACK               startup_stm32f446xx.o

